(dp0
S'remaining_guesses'
p1
(lp2
(I1
I2
I0
I4
I10
I7
I9
I6
I5
I3
I8
tp3
a(I1
I2
I0
I5
I10
I7
I9
I6
I4
I3
I8
tp4
a(I1
I2
I5
I0
I4
I7
I6
I10
I9
I3
I8
tp5
a(I1
I2
I5
I0
I10
I7
I6
I9
I4
I3
I8
tp6
a(I1
I2
I5
I0
I10
I7
I9
I6
I3
I4
I8
tp7
a(I1
I2
I5
I4
I0
I7
I6
I10
I9
I3
I8
tp8
a(I1
I2
I5
I4
I10
I7
I6
I9
I0
I3
I8
tp9
a(I1
I2
I5
I6
I10
I7
I0
I4
I9
I3
I8
tp10
a(I1
I2
I5
I7
I10
I4
I6
I0
I9
I3
I8
tp11
a(I1
I2
I5
I10
I0
I7
I6
I4
I9
I3
I8
tp12
a(I1
I2
I6
I5
I10
I7
I4
I0
I9
I3
I8
tp13
a(I1
I3
I0
I4
I2
I7
I9
I6
I5
I10
I8
tp14
a(I1
I3
I0
I5
I2
I7
I9
I6
I4
I10
I8
tp15
a(I1
I3
I0
I10
I2
I7
I9
I6
I4
I5
I8
tp16
a(I1
I3
I5
I0
I2
I7
I6
I9
I4
I10
I8
tp17
a(I1
I3
I5
I0
I2
I7
I6
I10
I4
I9
I8
tp18
a(I1
I3
I5
I0
I2
I7
I10
I4
I9
I6
I8
tp19
a(I1
I3
I5
I0
I10
I7
I9
I6
I4
I2
I8
tp20
a(I1
I3
I5
I2
I6
I7
I4
I0
I9
I10
I8
tp21
a(I1
I3
I5
I2
I10
I7
I9
I6
I4
I0
I8
tp22
a(I1
I3
I5
I4
I2
I7
I0
I10
I9
I6
I8
tp23
a(I1
I3
I5
I4
I2
I7
I6
I9
I0
I10
I8
tp24
a(I1
I3
I5
I4
I2
I7
I6
I10
I0
I9
I8
tp25
a(I1
I3
I5
I4
I10
I7
I9
I6
I0
I2
I8
tp26
a(I1
I3
I5
I4
I10
I7
I9
I6
I2
I0
I8
tp27
a(I1
I3
I5
I6
I2
I7
I0
I4
I9
I10
I8
tp28
a(I1
I3
I5
I6
I2
I7
I10
I4
I9
I0
I8
tp29
a(I1
I3
I5
I6
I2
I7
I10
I9
I0
I4
I8
tp30
a(I1
I3
I5
I6
I2
I10
I7
I0
I9
I4
I8
tp31
a(I1
I3
I5
I6
I10
I7
I4
I0
I2
I9
I8
tp32
a(I1
I3
I5
I7
I2
I4
I6
I0
I9
I10
I8
tp33
a(I1
I3
I5
I7
I2
I6
I10
I0
I9
I4
I8
tp34
a(I1
I3
I5
I8
I10
I7
I9
I0
I2
I4
I6
tp35
a(I1
I3
I5
I10
I0
I7
I9
I6
I2
I4
I8
tp36
a(I1
I3
I5
I10
I2
I6
I7
I0
I9
I4
I8
tp37
a(I1
I3
I5
I10
I2
I7
I0
I4
I9
I6
I8
tp38
a(I1
I3
I5
I10
I2
I7
I6
I0
I9
I8
I4
tp39
a(I1
I3
I5
I10
I2
I7
I6
I4
I0
I9
I8
tp40
a(I1
I3
I5
I10
I2
I7
I6
I9
I4
I0
I8
tp41
a(I1
I3
I5
I10
I2
I7
I8
I0
I9
I4
I6
tp42
a(I1
I3
I5
I10
I2
I9
I6
I0
I7
I4
I8
tp43
a(I1
I3
I5
I10
I6
I7
I4
I0
I9
I2
I8
tp44
a(I1
I3
I6
I5
I2
I7
I4
I0
I9
I10
I8
tp45
a(I1
I3
I6
I10
I2
I7
I4
I0
I9
I5
I8
tp46
a(I1
I3
I10
I0
I2
I7
I9
I6
I5
I4
I8
tp47
a(I1
I3
I10
I5
I2
I7
I4
I0
I9
I6
I8
tp48
a(I1
I3
I10
I5
I2
I7
I9
I6
I0
I4
I8
tp49
a(I1
I3
I10
I6
I2
I7
I4
I0
I9
I5
I8
tp50
a(I1
I4
I0
I5
I2
I10
I6
I7
I9
I3
I8
tp51
a(I1
I4
I0
I6
I2
I10
I7
I5
I9
I3
I8
tp52
a(I1
I4
I0
I7
I2
I5
I6
I10
I9
I3
I8
tp53
a(I1
I4
I0
I7
I2
I6
I10
I5
I9
I3
I8
tp54
a(I1
I4
I0
I8
I10
I7
I9
I5
I2
I3
I6
tp55
a(I1
I4
I0
I10
I2
I5
I6
I7
I9
I3
I8
tp56
a(I1
I4
I0
I10
I2
I6
I7
I5
I9
I3
I8
tp57
a(I1
I4
I0
I10
I2
I7
I6
I8
I9
I3
I5
tp58
a(I1
I4
I0
I10
I2
I7
I8
I5
I9
I3
I6
tp59
a(I1
I4
I0
I10
I2
I9
I6
I5
I7
I3
I8
tp60
a(I1
I4
I2
I0
I10
I7
I5
I6
I9
I3
I8
tp61
a(I1
I4
I2
I5
I10
I7
I0
I6
I9
I3
I8
tp62
a(I1
I4
I2
I8
I10
I7
I6
I0
I9
I3
I5
tp63
a(I1
I4
I5
I0
I10
I2
I6
I7
I9
I3
I8
tp64
a(I1
I4
I5
I0
I10
I7
I6
I8
I9
I3
I2
tp65
a(I1
I4
I5
I2
I10
I0
I6
I7
I9
I3
I8
tp66
a(I1
I4
I5
I2
I10
I7
I6
I8
I9
I3
I0
tp67
a(I1
I4
I5
I8
I10
I7
I6
I0
I9
I2
I3
tp68
a(I1
I4
I7
I0
I2
I10
I6
I5
I9
I3
I8
tp69
a(I1
I4
I7
I10
I2
I0
I6
I5
I9
I3
I8
tp70
a(I1
I4
I10
I7
I2
I0
I6
I5
I9
I3
I8
tp71
a(I1
I5
I0
I2
I10
I7
I9
I6
I4
I3
I8
tp72
a(I1
I5
I0
I4
I10
I7
I9
I6
I2
I3
I8
tp73
a(I1
I5
I0
I6
I2
I7
I10
I4
I9
I3
I8
tp74
a(I1
I5
I0
I10
I2
I7
I6
I9
I4
I3
I8
tp75
a(I1
I5
I0
I10
I2
I7
I9
I6
I3
I4
I8
tp76
a(I1
I5
I2
I6
I10
I7
I4
I0
I9
I3
I8
tp77
a(I1
I5
I4
I0
I2
I7
I6
I10
I9
I3
I8
tp78
a(I1
I5
I6
I2
I10
I7
I4
I0
I9
I3
I8
tp79
a(I1
I5
I10
I0
I2
I7
I6
I4
I9
I3
I8
tp80
a(I1
I6
I0
I4
I2
I7
I5
I10
I9
I3
I8
tp81
a(I1
I6
I0
I5
I2
I7
I10
I4
I9
I3
I8
tp82
a(I1
I6
I0
I10
I2
I7
I5
I4
I9
I3
I8
tp83
a(I1
I6
I2
I5
I10
I7
I4
I0
I9
I3
I8
tp84
a(I1
I6
I4
I0
I2
I7
I10
I5
I9
I3
I8
tp85
a(I1
I6
I4
I10
I2
I7
I0
I5
I9
I3
I8
tp86
a(I1
I6
I5
I0
I2
I7
I10
I3
I9
I4
I8
tp87
a(I1
I6
I5
I0
I10
I7
I2
I4
I9
I3
I8
tp88
a(I1
I6
I5
I2
I10
I7
I0
I4
I9
I3
I8
tp89
a(I1
I6
I5
I10
I2
I7
I0
I3
I9
I4
I8
tp90
a(I1
I6
I10
I4
I2
I7
I0
I5
I9
I3
I8
tp91
a(I1
I8
I5
I2
I10
I7
I6
I0
I9
I3
I4
tp92
a(I1
I8
I5
I4
I10
I7
I6
I0
I9
I3
I2
tp93
a(I1
I8
I5
I10
I2
I7
I6
I0
I9
I4
I3
tp94
a(I1
I9
I0
I4
I2
I7
I6
I10
I5
I3
I8
tp95
a(I1
I9
I0
I5
I2
I7
I6
I10
I4
I3
I8
tp96
a(I1
I9
I0
I6
I2
I7
I10
I5
I4
I3
I8
tp97
a(I1
I9
I0
I10
I2
I7
I6
I4
I5
I3
I8
tp98
a(I1
I9
I4
I10
I2
I7
I6
I5
I0
I3
I8
tp99
a(I1
I9
I5
I0
I2
I7
I6
I10
I3
I4
I8
tp100
a(I1
I9
I5
I0
I10
I7
I6
I4
I2
I3
I8
tp101
a(I1
I9
I5
I2
I10
I7
I6
I4
I0
I3
I8
tp102
a(I1
I9
I5
I10
I2
I7
I6
I3
I0
I4
I8
tp103
a(I1
I9
I10
I0
I2
I7
I6
I5
I4
I3
I8
tp104
a(I1
I9
I10
I4
I2
I7
I6
I5
I0
I3
I8
tp105
a(I1
I10
I0
I4
I2
I7
I6
I9
I5
I3
I8
tp106
a(I1
I10
I0
I5
I2
I7
I6
I9
I4
I3
I8
tp107
a(I1
I10
I0
I5
I2
I7
I9
I6
I3
I4
I8
tp108
a(I1
I10
I0
I6
I2
I7
I5
I4
I9
I3
I8
tp109
a(I1
I10
I4
I6
I2
I7
I0
I5
I9
I3
I8
tp110
a(I1
I10
I5
I0
I2
I7
I6
I9
I3
I4
I8
tp111
a(I1
I10
I5
I2
I0
I7
I6
I4
I9
I3
I8
tp112
a(I1
I10
I5
I4
I2
I7
I6
I3
I9
I0
I8
tp113
a(I1
I10
I5
I6
I2
I7
I0
I3
I9
I4
I8
tp114
a(I1
I10
I5
I7
I2
I3
I6
I0
I9
I4
I8
tp115
a(I1
I10
I6
I4
I2
I7
I0
I5
I9
I3
I8
tp116
a(I1
I10
I9
I0
I2
I7
I6
I5
I4
I3
I8
tp117
a(I1
I10
I9
I4
I2
I7
I6
I5
I0
I3
I8
tp118
a(I2
I1
I0
I10
I4
I7
I9
I6
I5
I3
I8
tp119
a(I2
I1
I4
I0
I10
I7
I9
I6
I5
I3
I8
tp120
a(I2
I1
I4
I5
I10
I7
I9
I6
I0
I3
I8
tp121
a(I2
I1
I5
I0
I6
I7
I10
I4
I9
I3
I8
tp122
a(I2
I1
I5
I0
I9
I7
I6
I10
I4
I3
I8
tp123
a(I2
I1
I5
I4
I6
I7
I0
I10
I9
I3
I8
tp124
a(I2
I1
I5
I4
I7
I10
I6
I0
I9
I3
I8
tp125
a(I2
I1
I5
I4
I9
I7
I6
I10
I0
I3
I8
tp126
a(I2
I1
I5
I4
I10
I6
I7
I0
I9
I3
I8
tp127
a(I2
I1
I5
I4
I10
I7
I8
I0
I9
I3
I6
tp128
a(I2
I1
I5
I4
I10
I7
I9
I6
I3
I0
I8
tp129
a(I2
I1
I5
I4
I10
I9
I6
I0
I7
I3
I8
tp130
a(I2
I1
I5
I6
I0
I7
I10
I4
I9
I3
I8
tp131
a(I2
I1
I5
I6
I3
I7
I4
I0
I9
I10
I8
tp132
a(I2
I1
I5
I6
I4
I7
I0
I10
I9
I3
I8
tp133
a(I2
I1
I5
I6
I10
I4
I7
I0
I9
I3
I8
tp134
a(I2
I1
I5
I6
I10
I7
I0
I9
I4
I3
I8
tp135
a(I2
I1
I5
I6
I10
I7
I4
I0
I3
I9
I8
tp136
a(I2
I1
I5
I6
I10
I7
I8
I0
I9
I3
I4
tp137
a(I2
I1
I5
I7
I4
I10
I6
I0
I9
I3
I8
tp138
a(I2
I1
I5
I7
I10
I9
I6
I0
I4
I3
I8
tp139
a(I2
I1
I5
I8
I10
I7
I9
I0
I3
I4
I6
tp140
a(I2
I1
I5
I10
I0
I7
I6
I9
I4
I3
I8
tp141
a(I2
I1
I5
I10
I0
I7
I9
I6
I3
I4
I8
tp142
a(I2
I1
I5
I10
I3
I7
I4
I0
I9
I6
I8
tp143
a(I2
I1
I5
I10
I3
I7
I9
I6
I0
I4
I8
tp144
a(I2
I1
I5
I10
I4
I7
I6
I9
I0
I3
I8
tp145
a(I2
I1
I5
I10
I6
I7
I0
I4
I9
I3
I8
tp146
a(I2
I1
I5
I10
I7
I4
I6
I0
I9
I3
I8
tp147
a(I2
I1
I5
I10
I8
I7
I6
I0
I9
I3
I4
tp148
a(I2
I1
I5
I10
I9
I7
I6
I4
I0
I3
I8
tp149
a(I2
I1
I9
I6
I10
I7
I4
I0
I5
I3
I8
tp150
a(I2
I1
I10
I5
I6
I7
I4
I0
I9
I3
I8
tp151
a(I2
I3
I5
I0
I1
I7
I9
I6
I4
I10
I8
tp152
a(I2
I3
I5
I0
I4
I7
I9
I6
I1
I10
I8
tp153
a(I2
I3
I5
I1
I0
I4
I9
I6
I7
I10
I8
tp154
a(I2
I3
I5
I1
I0
I7
I9
I6
I8
I10
I4
tp155
a(I2
I3
I5
I1
I4
I0
I9
I6
I7
I10
I8
tp156
a(I2
I3
I5
I1
I4
I7
I9
I6
I8
I10
I0
tp157
a(I2
I3
I5
I1
I4
I7
I10
I0
I8
I6
I9
tp158
a(I2
I3
I5
I1
I4
I10
I9
I6
I7
I0
I8
tp159
a(I2
I3
I5
I1
I6
I7
I8
I0
I4
I10
I9
tp160
a(I2
I3
I5
I1
I6
I7
I10
I0
I4
I8
I9
tp161
a(I2
I3
I5
I1
I6
I9
I4
I0
I7
I10
I8
tp162
a(I2
I3
I5
I1
I6
I10
I4
I0
I7
I9
I8
tp163
a(I2
I3
I5
I1
I7
I0
I9
I6
I4
I10
I8
tp164
a(I2
I3
I5
I1
I7
I4
I9
I6
I0
I10
I8
tp165
a(I2
I3
I5
I1
I7
I10
I9
I6
I4
I0
I8
tp166
a(I2
I3
I5
I1
I8
I7
I9
I6
I0
I10
I4
tp167
a(I2
I3
I5
I1
I8
I7
I9
I6
I4
I10
I0
tp168
a(I2
I3
I5
I1
I8
I7
I10
I0
I4
I6
I9
tp169
a(I2
I3
I5
I1
I9
I6
I4
I0
I7
I10
I8
tp170
a(I2
I3
I5
I1
I9
I7
I4
I0
I8
I10
I6
tp171
a(I2
I3
I5
I1
I9
I10
I4
I0
I7
I6
I8
tp172
a(I2
I3
I5
I4
I0
I7
I9
I6
I1
I10
I8
tp173
a(I2
I3
I5
I4
I1
I7
I9
I6
I0
I10
I8
tp174
a(I2
I3
I5
I6
I9
I7
I4
I0
I1
I10
I8
tp175
a(I2
I3
I5
I8
I10
I7
I9
I0
I1
I6
I4
tp176
a(I2
I3
I5
I8
I10
I7
I9
I0
I4
I6
I1
tp177
a(I2
I3
I5
I10
I1
I7
I9
I6
I4
I0
I8
tp178
a(I2
I3
I5
I10
I4
I7
I9
I6
I1
I0
I8
tp179
a(I2
I3
I5
I10
I6
I7
I4
I0
I1
I9
I8
tp180
a(I2
I3
I5
I10
I9
I7
I4
I0
I1
I6
I8
tp181
a(I2
I4
I0
I1
I6
I7
I5
I10
I8
I3
I9
tp182
a(I2
I4
I0
I1
I6
I7
I8
I10
I5
I3
I9
tp183
a(I2
I4
I0
I1
I6
I7
I10
I8
I5
I3
I9
tp184
a(I2
I4
I0
I1
I7
I9
I10
I6
I5
I3
I8
tp185
a(I2
I4
I0
I1
I9
I5
I10
I6
I7
I3
I8
tp186
a(I2
I4
I0
I1
I9
I7
I10
I6
I8
I3
I5
tp187
a(I2
I4
I0
I1
I9
I10
I5
I6
I7
I3
I8
tp188
a(I2
I4
I0
I1
I9
I10
I7
I6
I5
I3
I8
tp189
a(I2
I4
I0
I1
I10
I5
I9
I6
I8
I3
I7
tp190
a(I2
I4
I0
I1
I10
I8
I9
I6
I5
I3
I7
tp191
a(I2
I4
I0
I1
I10
I8
I9
I6
I7
I3
I5
tp192
a(I2
I4
I0
I5
I9
I7
I10
I6
I1
I3
I8
tp193
a(I2
I4
I0
I5
I10
I7
I9
I6
I8
I3
I1
tp194
a(I2
I4
I0
I7
I10
I5
I9
I6
I1
I3
I8
tp195
a(I2
I4
I0
I8
I10
I7
I9
I1
I5
I3
I6
tp196
a(I2
I4
I0
I10
I9
I7
I1
I6
I5
I3
I8
tp197
a(I2
I4
I0
I10
I9
I7
I5
I6
I1
I3
I8
tp198
a(I2
I4
I1
I5
I0
I7
I10
I6
I9
I3
I8
tp199
a(I2
I4
I1
I5
I10
I7
I6
I0
I8
I3
I9
tp200
a(I2
I4
I1
I8
I10
I7
I5
I0
I9
I3
I6
tp201
a(I2
I4
I1
I8
I10
I7
I9
I5
I0
I3
I6
tp202
a(I2
I4
I1
I10
I0
I7
I5
I6
I9
I3
I8
tp203
a(I2
I4
I5
I0
I1
I10
I6
I7
I9
I3
I8
tp204
a(I2
I4
I5
I0
I3
I7
I1
I6
I9
I10
I8
tp205
a(I2
I4
I5
I0
I7
I10
I6
I1
I9
I3
I8
tp206
a(I2
I4
I5
I0
I8
I7
I6
I10
I9
I3
I1
tp207
a(I2
I4
I5
I0
I10
I6
I1
I7
I9
I3
I8
tp208
a(I2
I4
I5
I0
I10
I6
I7
I1
I9
I3
I8
tp209
a(I2
I4
I5
I0
I10
I7
I1
I6
I3
I9
I8
tp210
a(I2
I4
I5
I0
I10
I7
I1
I8
I9
I3
I6
tp211
a(I2
I4
I5
I0
I10
I7
I6
I9
I8
I3
I1
tp212
a(I2
I4
I5
I0
I10
I7
I8
I1
I9
I3
I6
tp213
a(I2
I4
I5
I0
I10
I9
I6
I1
I7
I3
I8
tp214
a(I2
I4
I5
I0
I10
I9
I6
I7
I1
I3
I8
tp215
a(I2
I4
I5
I1
I0
I3
I7
I6
I9
I10
I8
tp216
a(I2
I4
I5
I1
I0
I7
I6
I3
I8
I10
I9
tp217
a(I2
I4
I5
I1
I0
I7
I6
I8
I3
I10
I9
tp218
a(I2
I4
I5
I1
I0
I7
I6
I10
I3
I8
I9
tp219
a(I2
I4
I5
I1
I0
I7
I8
I6
I9
I10
I3
tp220
a(I2
I4
I5
I1
I0
I7
I10
I6
I9
I8
I3
tp221
a(I2
I4
I5
I1
I0
I8
I6
I10
I9
I3
I7
tp222
a(I2
I4
I5
I1
I0
I10
I6
I8
I9
I3
I7
tp223
a(I2
I4
I5
I1
I3
I0
I7
I6
I9
I10
I8
tp224
a(I2
I4
I5
I1
I3
I7
I6
I8
I0
I10
I9
tp225
a(I2
I4
I5
I1
I3
I7
I6
I10
I0
I8
I9
tp226
a(I2
I4
I5
I1
I3
I7
I6
I10
I8
I0
I9
tp227
a(I2
I4
I5
I1
I3
I7
I8
I6
I9
I10
I0
tp228
a(I2
I4
I5
I1
I3
I7
I10
I6
I9
I8
I0
tp229
a(I2
I4
I5
I1
I3
I10
I7
I6
I9
I0
I8
tp230
a(I2
I4
I5
I1
I7
I3
I0
I6
I9
I10
I8
tp231
a(I2
I4
I5
I1
I7
I3
I10
I6
I9
I0
I8
tp232
a(I2
I4
I5
I1
I7
I8
I6
I10
I9
I3
I0
tp233
a(I2
I4
I5
I1
I7
I10
I6
I8
I9
I3
I0
tp234
a(I2
I4
I5
I1
I8
I0
I6
I10
I9
I3
I7
tp235
a(I2
I4
I5
I1
I8
I7
I0
I6
I9
I10
I3
tp236
a(I2
I4
I5
I1
I8
I7
I6
I3
I0
I10
I9
tp237
a(I2
I4
I5
I1
I8
I7
I6
I10
I3
I0
I9
tp238
a(I2
I4
I5
I1
I8
I7
I10
I6
I9
I0
I3
tp239
a(I2
I4
I5
I1
I8
I10
I6
I7
I9
I3
I0
tp240
a(I2
I4
I5
I1
I10
I0
I6
I9
I8
I3
I7
tp241
a(I2
I4
I5
I1
I10
I0
I7
I6
I3
I9
I8
tp242
a(I2
I4
I5
I1
I10
I0
I7
I8
I9
I3
I6
tp243
a(I2
I4
I5
I1
I10
I0
I8
I7
I9
I3
I6
tp244
a(I2
I4
I5
I1
I10
I3
I0
I6
I7
I9
I8
tp245
a(I2
I4
I5
I1
I10
I3
I6
I0
I7
I8
I9
tp246
a(I2
I4
I5
I1
I10
I3
I7
I6
I0
I9
I8
tp247
a(I2
I4
I5
I1
I10
I6
I0
I8
I9
I3
I7
tp248
a(I2
I4
I5
I1
I10
I6
I7
I8
I9
I3
I0
tp249
a(I2
I4
I5
I1
I10
I6
I8
I7
I9
I3
I0
tp250
a(I2
I4
I5
I1
I10
I7
I0
I3
I8
I6
I9
tp251
a(I2
I4
I5
I1
I10
I7
I0
I6
I8
I9
I3
tp252
a(I2
I4
I5
I1
I10
I7
I0
I8
I3
I6
I9
tp253
a(I2
I4
I5
I1
I10
I7
I8
I3
I0
I6
I9
tp254
a(I2
I4
I5
I1
I10
I7
I8
I6
I0
I9
I3
tp255
a(I2
I4
I5
I1
I10
I7
I8
I6
I3
I9
I0
tp256
a(I2
I4
I5
I1
I10
I8
I0
I7
I9
I3
I6
tp257
a(I2
I4
I5
I1
I10
I8
I6
I9
I0
I3
I7
tp258
a(I2
I4
I5
I1
I10
I8
I6
I9
I7
I3
I0
tp259
a(I2
I4
I5
I1
I10
I9
I6
I7
I8
I3
I0
tp260
a(I2
I4
I5
I1
I10
I9
I6
I8
I0
I3
I7
tp261
a(I2
I4
I5
I1
I10
I9
I6
I8
I7
I3
I0
tp262
a(I2
I4
I5
I1
I10
I9
I7
I6
I3
I0
I8
tp263
a(I2
I4
I5
I6
I10
I0
I1
I7
I9
I3
I8
tp264
a(I2
I4
I5
I6
I10
I0
I7
I1
I9
I3
I8
tp265
a(I2
I4
I5
I6
I10
I7
I0
I8
I9
I3
I1
tp266
a(I2
I4
I5
I6
I10
I7
I1
I8
I9
I3
I0
tp267
a(I2
I4
I5
I6
I10
I7
I8
I1
I9
I3
I0
tp268
a(I2
I4
I5
I7
I0
I10
I6
I1
I9
I3
I8
tp269
a(I2
I4
I5
I7
I1
I0
I6
I10
I9
I3
I8
tp270
a(I2
I4
I5
I7
I10
I0
I6
I9
I1
I3
I8
tp271
a(I2
I4
I5
I7
I10
I6
I0
I1
I9
I3
I8
tp272
a(I2
I4
I5
I7
I10
I8
I6
I0
I9
I3
I1
tp273
a(I2
I4
I5
I7
I10
I9
I6
I1
I0
I3
I8
tp274
a(I2
I4
I5
I8
I1
I7
I6
I0
I9
I10
I3
tp275
a(I2
I4
I5
I8
I3
I7
I6
I0
I9
I10
I1
tp276
a(I2
I4
I5
I8
I10
I7
I1
I0
I9
I6
I3
tp277
a(I2
I4
I5
I8
I10
I7
I6
I0
I1
I9
I3
tp278
a(I2
I4
I5
I8
I10
I7
I6
I0
I3
I9
I1
tp279
a(I2
I4
I5
I10
I0
I7
I6
I8
I9
I3
I1
tp280
a(I2
I4
I5
I10
I1
I0
I6
I7
I9
I3
I8
tp281
a(I2
I4
I5
I10
I1
I7
I6
I8
I9
I3
I0
tp282
a(I2
I4
I5
I10
I3
I7
I1
I6
I9
I0
I8
tp283
a(I2
I4
I5
I10
I7
I0
I6
I1
I9
I3
I8
tp284
a(I2
I4
I5
I10
I8
I7
I6
I1
I9
I3
I0
tp285
a(I2
I4
I6
I1
I0
I7
I10
I5
I8
I3
I9
tp286
a(I2
I4
I6
I1
I8
I7
I10
I5
I0
I3
I9
tp287
a(I2
I4
I6
I1
I10
I7
I0
I8
I5
I3
I9
tp288
a(I2
I4
I6
I1
I10
I7
I5
I8
I0
I3
I9
tp289
a(I2
I4
I6
I8
I10
I7
I1
I0
I9
I3
I5
tp290
a(I2
I4
I6
I8
I10
I7
I5
I0
I9
I3
I1
tp291
a(I2
I4
I6
I8
I10
I7
I9
I5
I0
I3
I1
tp292
a(I2
I4
I6
I8
I10
I7
I9
I5
I1
I3
I0
tp293
a(I2
I4
I7
I1
I0
I5
I10
I6
I9
I3
I8
tp294
a(I2
I4
I7
I1
I0
I10
I5
I6
I9
I3
I8
tp295
a(I2
I4
I7
I1
I10
I5
I6
I0
I8
I3
I9
tp296
a(I2
I4
I7
I1
I10
I8
I6
I0
I5
I3
I9
tp297
a(I2
I4
I7
I1
I10
I9
I0
I6
I5
I3
I8
tp298
a(I2
I4
I7
I1
I10
I9
I5
I6
I0
I3
I8
tp299
a(I2
I4
I9
I0
I10
I7
I1
I6
I5
I3
I8
tp300
a(I2
I4
I9
I0
I10
I7
I5
I6
I1
I3
I8
tp301
a(I2
I4
I9
I1
I10
I0
I5
I6
I7
I3
I8
tp302
a(I2
I4
I9
I1
I10
I0
I7
I6
I5
I3
I8
tp303
a(I2
I4
I9
I1
I10
I5
I0
I6
I7
I3
I8
tp304
a(I2
I4
I9
I1
I10
I5
I7
I6
I0
I3
I8
tp305
a(I2
I4
I9
I1
I10
I7
I0
I6
I8
I3
I5
tp306
a(I2
I4
I9
I1
I10
I7
I5
I6
I8
I3
I0
tp307
a(I2
I4
I9
I1
I10
I7
I8
I6
I0
I3
I5
tp308
a(I2
I4
I9
I1
I10
I7
I8
I6
I5
I3
I0
tp309
a(I2
I4
I9
I5
I10
I7
I0
I6
I1
I3
I8
tp310
a(I2
I4
I9
I5
I10
I7
I1
I6
I0
I3
I8
tp311
a(I2
I4
I9
I8
I10
I7
I6
I0
I1
I3
I5
tp312
a(I2
I4
I9
I8
I10
I7
I6
I0
I5
I3
I1
tp313
a(I2
I4
I10
I0
I1
I7
I5
I6
I9
I3
I8
tp314
a(I2
I4
I10
I1
I0
I5
I7
I6
I9
I3
I8
tp315
a(I2
I4
I10
I1
I0
I7
I6
I8
I5
I3
I9
tp316
a(I2
I4
I10
I1
I0
I7
I8
I6
I9
I3
I5
tp317
a(I2
I4
I10
I1
I6
I7
I0
I5
I8
I3
I9
tp318
a(I2
I4
I10
I1
I6
I7
I8
I5
I0
I3
I9
tp319
a(I2
I4
I10
I1
I7
I0
I5
I6
I9
I3
I8
tp320
a(I2
I4
I10
I1
I7
I5
I0
I6
I9
I3
I8
tp321
a(I2
I4
I10
I1
I8
I7
I0
I6
I9
I3
I5
tp322
a(I2
I4
I10
I1
I8
I7
I5
I6
I9
I3
I0
tp323
a(I2
I4
I10
I5
I0
I7
I1
I6
I9
I3
I8
tp324
a(I2
I4
I10
I5
I1
I7
I0
I6
I9
I3
I8
tp325
a(I2
I4
I10
I8
I1
I7
I6
I0
I9
I3
I5
tp326
a(I2
I5
I0
I1
I4
I10
I9
I6
I7
I3
I8
tp327
a(I2
I5
I0
I1
I7
I10
I9
I6
I4
I3
I8
tp328
a(I2
I5
I0
I10
I1
I7
I9
I6
I4
I3
I8
tp329
a(I2
I5
I0
I10
I4
I7
I9
I6
I1
I3
I8
tp330
a(I2
I5
I1
I0
I10
I7
I9
I6
I4
I3
I8
tp331
a(I2
I5
I1
I4
I10
I7
I9
I6
I0
I3
I8
tp332
a(I2
I5
I1
I10
I6
I7
I4
I0
I9
I3
I8
tp333
a(I2
I5
I4
I0
I10
I7
I9
I6
I1
I3
I8
tp334
a(I2
I5
I4
I1
I9
I7
I10
I6
I0
I3
I8
tp335
a(I2
I5
I4
I1
I10
I0
I9
I6
I7
I3
I8
tp336
a(I2
I5
I4
I1
I10
I7
I9
I6
I8
I3
I0
tp337
a(I2
I5
I6
I1
I7
I10
I4
I0
I9
I3
I8
tp338
a(I2
I5
I6
I1
I9
I7
I4
I10
I0
I3
I8
tp339
a(I2
I5
I6
I1
I10
I7
I8
I0
I4
I3
I9
tp340
a(I2
I5
I6
I1
I10
I9
I4
I0
I7
I3
I8
tp341
a(I2
I5
I6
I10
I1
I7
I4
I0
I9
I3
I8
tp342
a(I2
I5
I7
I1
I6
I10
I4
I0
I9
I3
I8
tp343
a(I2
I5
I7
I1
I10
I0
I9
I6
I4
I3
I8
tp344
a(I2
I5
I7
I1
I10
I4
I9
I6
I0
I3
I8
tp345
a(I2
I5
I9
I1
I0
I7
I10
I6
I4
I3
I8
tp346
a(I2
I5
I9
I1
I4
I7
I10
I6
I0
I3
I8
tp347
a(I2
I5
I9
I1
I6
I7
I4
I10
I0
I3
I8
tp348
a(I2
I5
I9
I1
I10
I6
I4
I0
I7
I3
I8
tp349
a(I2
I5
I9
I1
I10
I7
I4
I0
I8
I3
I6
tp350
a(I2
I5
I9
I6
I10
I7
I4
I0
I1
I3
I8
tp351
a(I2
I5
I10
I1
I4
I7
I6
I0
I8
I3
I9
tp352
a(I2
I5
I10
I1
I6
I7
I4
I9
I0
I3
I8
tp353
a(I2
I5
I10
I1
I7
I6
I4
I0
I9
I3
I8
tp354
a(I2
I5
I10
I1
I8
I7
I4
I0
I9
I3
I6
tp355
a(I2
I5
I10
I1
I8
I7
I6
I0
I4
I3
I9
tp356
a(I2
I5
I10
I1
I9
I7
I0
I6
I4
I3
I8
tp357
a(I2
I5
I10
I6
I1
I7
I4
I0
I9
I3
I8
tp358
a(I2
I6
I4
I1
I10
I7
I5
I0
I8
I3
I9
tp359
a(I2
I6
I4
I1
I10
I7
I8
I0
I5
I3
I9
tp360
a(I2
I6
I5
I0
I1
I7
I10
I4
I9
I3
I8
tp361
a(I2
I6
I5
I0
I4
I7
I1
I10
I9
I3
I8
tp362
a(I2
I6
I5
I0
I4
I7
I10
I1
I9
I3
I8
tp363
a(I2
I6
I5
I0
I10
I7
I1
I9
I4
I3
I8
tp364
a(I2
I6
I5
I1
I0
I4
I7
I10
I9
I3
I8
tp365
a(I2
I6
I5
I1
I0
I4
I10
I7
I9
I3
I8
tp366
a(I2
I6
I5
I1
I0
I7
I4
I9
I3
I10
I8
tp367
a(I2
I6
I5
I1
I0
I7
I4
I10
I3
I9
I8
tp368
a(I2
I6
I5
I1
I0
I7
I8
I10
I9
I3
I4
tp369
a(I2
I6
I5
I1
I0
I7
I10
I8
I9
I3
I4
tp370
a(I2
I6
I5
I1
I0
I10
I7
I4
I9
I3
I8
tp371
a(I2
I6
I5
I1
I3
I7
I4
I9
I0
I10
I8
tp372
a(I2
I6
I5
I1
I3
I7
I4
I10
I0
I9
I8
tp373
a(I2
I6
I5
I1
I3
I7
I10
I0
I8
I4
I9
tp374
a(I2
I6
I5
I1
I4
I0
I7
I10
I9
I3
I8
tp375
a(I2
I6
I5
I1
I4
I0
I10
I7
I9
I3
I8
tp376
a(I2
I6
I5
I1
I4
I7
I8
I10
I9
I3
I0
tp377
a(I2
I6
I5
I1
I4
I7
I10
I8
I9
I3
I0
tp378
a(I2
I6
I5
I1
I4
I10
I0
I7
I9
I3
I8
tp379
a(I2
I6
I5
I1
I7
I0
I10
I4
I9
I3
I8
tp380
a(I2
I6
I5
I1
I7
I3
I4
I0
I9
I10
I8
tp381
a(I2
I6
I5
I1
I7
I4
I0
I10
I9
I3
I8
tp382
a(I2
I6
I5
I1
I7
I10
I0
I4
I9
I3
I8
tp383
a(I2
I6
I5
I1
I8
I7
I0
I10
I9
I3
I4
tp384
a(I2
I6
I5
I1
I8
I7
I4
I0
I9
I10
I3
tp385
a(I2
I6
I5
I1
I8
I7
I10
I0
I3
I4
I9
tp386
a(I2
I6
I5
I1
I8
I7
I10
I4
I9
I3
I0
tp387
a(I2
I6
I5
I1
I9
I7
I4
I3
I0
I10
I8
tp388
a(I2
I6
I5
I1
I9
I7
I4
I10
I3
I0
I8
tp389
a(I2
I6
I5
I1
I10
I0
I7
I9
I4
I3
I8
tp390
a(I2
I6
I5
I1
I10
I3
I4
I0
I7
I9
I8
tp391
a(I2
I6
I5
I1
I10
I4
I0
I9
I7
I3
I8
tp392
a(I2
I6
I5
I1
I10
I4
I7
I9
I0
I3
I8
tp393
a(I2
I6
I5
I1
I10
I4
I8
I0
I9
I3
I7
tp394
a(I2
I6
I5
I1
I10
I7
I0
I9
I8
I3
I4
tp395
a(I2
I6
I5
I1
I10
I7
I4
I0
I8
I9
I3
tp396
a(I2
I6
I5
I1
I10
I7
I8
I9
I0
I3
I4
tp397
a(I2
I6
I5
I1
I10
I7
I8
I9
I4
I3
I0
tp398
a(I2
I6
I5
I1
I10
I8
I7
I0
I9
I3
I4
tp399
a(I2
I6
I5
I1
I10
I9
I0
I4
I7
I3
I8
tp400
a(I2
I6
I5
I1
I10
I9
I0
I7
I4
I3
I8
tp401
a(I2
I6
I5
I1
I10
I9
I7
I4
I0
I3
I8
tp402
a(I2
I6
I5
I4
I0
I7
I1
I10
I9
I3
I8
tp403
a(I2
I6
I5
I4
I0
I7
I10
I1
I9
I3
I8
tp404
a(I2
I6
I5
I4
I1
I7
I0
I10
I9
I3
I8
tp405
a(I2
I6
I5
I4
I10
I7
I0
I9
I1
I3
I8
tp406
a(I2
I6
I5
I4
I10
I7
I1
I9
I0
I3
I8
tp407
a(I2
I6
I5
I4
I10
I7
I8
I0
I9
I3
I1
tp408
a(I2
I6
I5
I7
I10
I4
I1
I0
I9
I3
I8
tp409
a(I2
I6
I5
I8
I10
I7
I9
I0
I1
I4
I3
tp410
a(I2
I6
I5
I8
I10
I7
I9
I0
I3
I4
I1
tp411
a(I2
I6
I5
I10
I0
I7
I1
I4
I9
I3
I8
tp412
a(I2
I6
I5
I10
I1
I7
I0
I4
I9
I3
I8
tp413
a(I2
I6
I5
I10
I4
I7
I0
I1
I9
I3
I8
tp414
a(I2
I6
I7
I1
I10
I9
I4
I0
I5
I3
I8
tp415
a(I2
I6
I9
I1
I0
I7
I4
I10
I5
I3
I8
tp416
a(I2
I6
I9
I1
I10
I5
I4
I0
I7
I3
I8
tp417
a(I2
I6
I9
I1
I10
I7
I4
I0
I8
I3
I5
tp418
a(I2
I6
I9
I5
I10
I7
I4
I0
I1
I3
I8
tp419
a(I2
I6
I10
I1
I0
I7
I4
I9
I5
I3
I8
tp420
a(I2
I6
I10
I1
I7
I5
I4
I0
I9
I3
I8
tp421
a(I2
I6
I10
I1
I8
I7
I4
I0
I9
I3
I5
tp422
a(I2
I6
I10
I5
I1
I7
I4
I0
I9
I3
I8
tp423
a(I2
I7
I0
I1
I4
I6
I9
I10
I5
I3
I8
tp424
a(I2
I7
I0
I1
I6
I4
I9
I10
I5
I3
I8
tp425
a(I2
I7
I0
I1
I6
I5
I9
I10
I4
I3
I8
tp426
a(I2
I7
I0
I1
I6
I10
I9
I4
I5
I3
I8
tp427
a(I2
I7
I4
I1
I6
I5
I10
I0
I9
I3
I8
tp428
a(I2
I7
I4
I1
I6
I10
I5
I0
I9
I3
I8
tp429
a(I2
I7
I4
I1
I6
I10
I9
I5
I0
I3
I8
tp430
a(I2
I7
I4
I1
I9
I10
I6
I0
I5
I3
I8
tp431
a(I2
I7
I5
I1
I0
I6
I9
I10
I3
I4
I8
tp432
a(I2
I7
I5
I1
I3
I4
I10
I0
I9
I6
I8
tp433
a(I2
I7
I5
I1
I3
I6
I9
I10
I0
I4
I8
tp434
a(I2
I7
I5
I1
I3
I9
I6
I0
I4
I10
I8
tp435
a(I2
I7
I5
I1
I3
I10
I6
I0
I4
I9
I8
tp436
a(I2
I7
I5
I1
I4
I3
I10
I0
I9
I6
I8
tp437
a(I2
I7
I5
I1
I4
I9
I6
I0
I3
I10
I8
tp438
a(I2
I7
I5
I1
I4
I10
I6
I0
I3
I9
I8
tp439
a(I2
I7
I5
I1
I6
I0
I9
I10
I3
I4
I8
tp440
a(I2
I7
I5
I1
I6
I3
I9
I10
I0
I4
I8
tp441
a(I2
I7
I5
I1
I6
I9
I10
I0
I3
I4
I8
tp442
a(I2
I7
I5
I1
I6
I10
I9
I3
I0
I4
I8
tp443
a(I2
I7
I5
I1
I9
I3
I6
I0
I4
I10
I8
tp444
a(I2
I7
I5
I1
I9
I4
I6
I0
I3
I10
I8
tp445
a(I2
I7
I5
I1
I9
I6
I10
I0
I3
I4
I8
tp446
a(I2
I7
I5
I1
I10
I0
I9
I3
I4
I6
I8
tp447
a(I2
I7
I5
I1
I10
I0
I9
I4
I3
I6
I8
tp448
a(I2
I7
I5
I1
I10
I3
I9
I0
I8
I4
I6
tp449
a(I2
I7
I5
I1
I10
I3
I9
I4
I0
I6
I8
tp450
a(I2
I7
I5
I1
I10
I4
I9
I3
I0
I6
I8
tp451
a(I2
I7
I5
I1
I10
I6
I9
I0
I8
I4
I3
tp452
a(I2
I7
I5
I1
I10
I6
I9
I3
I4
I0
I8
tp453
a(I2
I7
I5
I1
I10
I6
I9
I4
I3
I0
I8
tp454
a(I2
I7
I5
I1
I10
I8
I9
I0
I3
I4
I6
tp455
a(I2
I7
I5
I6
I10
I3
I9
I0
I1
I4
I8
tp456
a(I2
I7
I6
I1
I0
I10
I9
I5
I4
I3
I8
tp457
a(I2
I7
I6
I1
I4
I5
I10
I0
I9
I3
I8
tp458
a(I2
I7
I6
I1
I4
I10
I5
I0
I9
I3
I8
tp459
a(I2
I7
I6
I1
I4
I10
I9
I5
I0
I3
I8
tp460
a(I2
I7
I6
I1
I10
I0
I9
I4
I5
I3
I8
tp461
a(I2
I7
I6
I1
I10
I5
I9
I4
I0
I3
I8
tp462
a(I2
I7
I6
I1
I10
I9
I5
I0
I4
I3
I8
tp463
a(I2
I7
I9
I1
I4
I10
I6
I0
I5
I3
I8
tp464
a(I2
I7
I9
I1
I10
I6
I5
I0
I4
I3
I8
tp465
a(I2
I7
I10
I1
I0
I6
I9
I5
I4
I3
I8
tp466
a(I2
I7
I10
I1
I4
I6
I5
I0
I9
I3
I8
tp467
a(I2
I7
I10
I1
I4
I6
I9
I5
I0
I3
I8
tp468
a(I2
I7
I10
I1
I4
I9
I6
I0
I5
I3
I8
tp469
a(I2
I7
I10
I1
I6
I0
I9
I5
I4
I3
I8
tp470
a(I2
I7
I10
I1
I6
I4
I5
I0
I9
I3
I8
tp471
a(I2
I7
I10
I1
I6
I4
I9
I5
I0
I3
I8
tp472
a(I2
I7
I10
I1
I9
I4
I6
I0
I5
I3
I8
tp473
a(I2
I7
I10
I1
I9
I5
I6
I0
I4
I3
I8
tp474
a(I2
I8
I4
I1
I10
I7
I9
I6
I0
I3
I5
tp475
a(I2
I8
I4
I1
I10
I7
I9
I6
I5
I3
I0
tp476
a(I2
I8
I5
I1
I0
I7
I10
I4
I9
I3
I6
tp477
a(I2
I8
I5
I1
I3
I7
I4
I0
I9
I10
I6
tp478
a(I2
I8
I5
I1
I3
I7
I6
I0
I4
I10
I9
tp479
a(I2
I8
I5
I1
I4
I7
I0
I10
I9
I3
I6
tp480
a(I2
I8
I5
I1
I4
I7
I6
I0
I3
I10
I9
tp481
a(I2
I8
I5
I1
I4
I10
I6
I0
I9
I3
I7
tp482
a(I2
I8
I5
I1
I6
I7
I0
I10
I9
I3
I4
tp483
a(I2
I8
I5
I1
I6
I7
I4
I0
I9
I10
I3
tp484
a(I2
I8
I5
I1
I6
I7
I10
I0
I3
I4
I9
tp485
a(I2
I8
I5
I1
I6
I7
I10
I4
I9
I3
I0
tp486
a(I2
I8
I5
I1
I7
I10
I6
I0
I9
I3
I4
tp487
a(I2
I8
I5
I1
I9
I7
I6
I10
I0
I3
I4
tp488
a(I2
I8
I5
I1
I9
I7
I6
I10
I4
I3
I0
tp489
a(I2
I8
I5
I1
I10
I4
I7
I0
I9
I3
I6
tp490
a(I2
I8
I5
I1
I10
I6
I7
I0
I9
I3
I4
tp491
a(I2
I8
I5
I1
I10
I7
I0
I9
I4
I3
I6
tp492
a(I2
I8
I5
I1
I10
I7
I4
I0
I3
I9
I6
tp493
a(I2
I8
I5
I1
I10
I7
I9
I6
I3
I0
I4
tp494
a(I2
I8
I5
I1
I10
I7
I9
I6
I4
I0
I3
tp495
a(I2
I8
I5
I1
I10
I9
I6
I0
I4
I3
I7
tp496
a(I2
I8
I5
I1
I10
I9
I6
I0
I7
I3
I4
tp497
a(I2
I8
I5
I4
I10
I7
I1
I0
I9
I3
I6
tp498
a(I2
I8
I5
I6
I10
I7
I1
I0
I9
I3
I4
tp499
a(I2
I8
I5
I10
I1
I7
I6
I0
I9
I3
I4
tp500
a(I2
I8
I5
I10
I4
I7
I6
I0
I9
I3
I1
tp501
a(I2
I8
I6
I1
I10
I7
I5
I0
I4
I3
I9
tp502
a(I2
I8
I9
I1
I10
I7
I4
I0
I5
I3
I6
tp503
a(I2
I8
I10
I1
I4
I7
I6
I0
I5
I3
I9
tp504
a(I2
I8
I10
I1
I6
I7
I4
I0
I9
I3
I5
tp505
a(I2
I9
I1
I6
I10
I7
I4
I0
I5
I3
I8
tp506
a(I2
I9
I4
I1
I0
I7
I10
I6
I5
I3
I8
tp507
a(I2
I9
I5
I0
I1
I7
I6
I10
I4
I3
I8
tp508
a(I2
I9
I5
I0
I4
I7
I6
I10
I1
I3
I8
tp509
a(I2
I9
I5
I1
I0
I4
I6
I10
I7
I3
I8
tp510
a(I2
I9
I5
I1
I0
I7
I4
I10
I3
I6
I8
tp511
a(I2
I9
I5
I1
I0
I7
I6
I10
I8
I3
I4
tp512
a(I2
I9
I5
I1
I0
I10
I6
I4
I7
I3
I8
tp513
a(I2
I9
I5
I1
I0
I10
I6
I7
I4
I3
I8
tp514
a(I2
I9
I5
I1
I3
I7
I0
I6
I4
I10
I8
tp515
a(I2
I9
I5
I1
I3
I7
I4
I10
I0
I6
I8
tp516
a(I2
I9
I5
I1
I3
I7
I10
I6
I4
I0
I8
tp517
a(I2
I9
I5
I1
I4
I0
I6
I10
I7
I3
I8
tp518
a(I2
I9
I5
I1
I4
I7
I0
I6
I3
I10
I8
tp519
a(I2
I9
I5
I1
I4
I7
I6
I10
I8
I3
I0
tp520
a(I2
I9
I5
I1
I4
I7
I10
I6
I3
I0
I8
tp521
a(I2
I9
I5
I1
I4
I10
I6
I7
I0
I3
I8
tp522
a(I2
I9
I5
I1
I6
I7
I4
I3
I0
I10
I8
tp523
a(I2
I9
I5
I1
I6
I7
I4
I10
I3
I0
I8
tp524
a(I2
I9
I5
I1
I7
I0
I6
I10
I4
I3
I8
tp525
a(I2
I9
I5
I1
I7
I4
I6
I10
I0
I3
I8
tp526
a(I2
I9
I5
I1
I7
I10
I6
I4
I0
I3
I8
tp527
a(I2
I9
I5
I1
I8
I7
I6
I10
I0
I3
I4
tp528
a(I2
I9
I5
I1
I8
I7
I6
I10
I4
I3
I0
tp529
a(I2
I9
I5
I1
I10
I3
I4
I0
I7
I6
I8
tp530
a(I2
I9
I5
I1
I10
I4
I6
I0
I8
I3
I7
tp531
a(I2
I9
I5
I1
I10
I6
I0
I4
I7
I3
I8
tp532
a(I2
I9
I5
I1
I10
I6
I0
I7
I4
I3
I8
tp533
a(I2
I9
I5
I1
I10
I6
I7
I4
I0
I3
I8
tp534
a(I2
I9
I5
I1
I10
I7
I0
I4
I8
I3
I6
tp535
a(I2
I9
I5
I1
I10
I7
I0
I8
I4
I3
I6
tp536
a(I2
I9
I5
I1
I10
I7
I4
I0
I3
I8
I6
tp537
a(I2
I9
I5
I1
I10
I7
I4
I0
I8
I6
I3
tp538
a(I2
I9
I5
I1
I10
I7
I8
I4
I0
I3
I6
tp539
a(I2
I9
I5
I1
I10
I8
I6
I0
I4
I3
I7
tp540
a(I2
I9
I5
I1
I10
I8
I6
I0
I7
I3
I4
tp541
a(I2
I9
I5
I4
I0
I7
I6
I10
I1
I3
I8
tp542
a(I2
I9
I5
I4
I1
I7
I6
I10
I0
I3
I8
tp543
a(I2
I9
I5
I4
I10
I7
I6
I0
I8
I3
I1
tp544
a(I2
I9
I5
I6
I10
I7
I0
I1
I4
I3
I8
tp545
a(I2
I9
I5
I6
I10
I7
I0
I4
I1
I3
I8
tp546
a(I2
I9
I5
I6
I10
I7
I1
I4
I0
I3
I8
tp547
a(I2
I9
I5
I7
I10
I4
I6
I0
I1
I3
I8
tp548
a(I2
I9
I5
I10
I0
I7
I6
I1
I4
I3
I8
tp549
a(I2
I9
I5
I10
I0
I7
I6
I4
I1
I3
I8
tp550
a(I2
I9
I5
I10
I1
I7
I6
I4
I0
I3
I8
tp551
a(I2
I9
I5
I10
I4
I7
I6
I1
I0
I3
I8
tp552
a(I2
I9
I6
I1
I0
I7
I4
I10
I5
I3
I8
tp553
a(I2
I9
I6
I1
I10
I5
I4
I0
I7
I3
I8
tp554
a(I2
I9
I6
I1
I10
I7
I4
I0
I8
I3
I5
tp555
a(I2
I9
I6
I5
I10
I7
I4
I0
I1
I3
I8
tp556
a(I2
I9
I7
I1
I10
I6
I4
I0
I5
I3
I8
tp557
a(I2
I9
I10
I1
I0
I7
I5
I6
I4
I3
I8
tp558
a(I2
I9
I10
I1
I4
I7
I0
I6
I5
I3
I8
tp559
a(I2
I9
I10
I1
I4
I7
I5
I6
I0
I3
I8
tp560
a(I2
I10
I0
I1
I4
I5
I9
I6
I7
I3
I8
tp561
a(I2
I10
I0
I1
I4
I7
I9
I6
I8
I3
I5
tp562
a(I2
I10
I0
I1
I7
I4
I9
I6
I5
I3
I8
tp563
a(I2
I10
I0
I1
I7
I5
I9
I6
I4
I3
I8
tp564
a(I2
I10
I0
I1
I8
I7
I9
I6
I4
I3
I5
tp565
a(I2
I10
I0
I1
I8
I7
I9
I6
I5
I3
I4
tp566
a(I2
I10
I0
I4
I1
I7
I9
I6
I5
I3
I8
tp567
a(I2
I10
I0
I5
I1
I7
I9
I6
I4
I3
I8
tp568
a(I2
I10
I0
I5
I4
I7
I9
I6
I1
I3
I8
tp569
a(I2
I10
I1
I5
I6
I7
I4
I0
I9
I3
I8
tp570
a(I2
I10
I4
I1
I8
I7
I6
I0
I5
I3
I9
tp571
a(I2
I10
I4
I1
I9
I7
I0
I6
I5
I3
I8
tp572
a(I2
I10
I4
I1
I9
I7
I5
I6
I0
I3
I8
tp573
a(I2
I10
I5
I0
I1
I7
I6
I9
I4
I3
I8
tp574
a(I2
I10
I5
I0
I1
I7
I9
I6
I3
I4
I8
tp575
a(I2
I10
I5
I0
I3
I7
I9
I6
I1
I4
I8
tp576
a(I2
I10
I5
I0
I4
I7
I6
I9
I1
I3
I8
tp577
a(I2
I10
I5
I0
I6
I7
I1
I4
I9
I3
I8
tp578
a(I2
I10
I5
I0
I9
I7
I6
I1
I4
I3
I8
tp579
a(I2
I10
I5
I0
I9
I7
I6
I4
I1
I3
I8
tp580
a(I2
I10
I5
I1
I0
I3
I9
I6
I7
I4
I8
tp581
a(I2
I10
I5
I1
I0
I4
I6
I9
I7
I3
I8
tp582
a(I2
I10
I5
I1
I0
I6
I7
I4
I9
I3
I8
tp583
a(I2
I10
I5
I1
I0
I7
I4
I9
I3
I6
I8
tp584
a(I2
I10
I5
I1
I0
I7
I6
I9
I8
I3
I4
tp585
a(I2
I10
I5
I1
I0
I7
I8
I4
I9
I3
I6
tp586
a(I2
I10
I5
I1
I0
I7
I9
I6
I8
I4
I3
tp587
a(I2
I10
I5
I1
I0
I9
I6
I4
I7
I3
I8
tp588
a(I2
I10
I5
I1
I0
I9
I6
I7
I4
I3
I8
tp589
a(I2
I10
I5
I1
I3
I0
I9
I6
I7
I4
I8
tp590
a(I2
I10
I5
I1
I3
I7
I0
I6
I4
I9
I8
tp591
a(I2
I10
I5
I1
I3
I7
I4
I0
I9
I8
I6
tp592
a(I2
I10
I5
I1
I3
I7
I4
I9
I0
I6
I8
tp593
a(I2
I10
I5
I1
I3
I7
I6
I0
I4
I8
I9
tp594
a(I2
I10
I5
I1
I3
I7
I9
I6
I8
I4
I0
tp595
a(I2
I10
I5
I1
I4
I0
I6
I9
I7
I3
I8
tp596
a(I2
I10
I5
I1
I4
I6
I0
I7
I9
I3
I8
tp597
a(I2
I10
I5
I1
I4
I7
I0
I6
I3
I9
I8
tp598
a(I2
I10
I5
I1
I4
I7
I0
I8
I9
I3
I6
tp599
a(I2
I10
I5
I1
I4
I7
I6
I0
I3
I8
I9
tp600
a(I2
I10
I5
I1
I4
I7
I6
I9
I8
I3
I0
tp601
a(I2
I10
I5
I1
I4
I8
I6
I0
I9
I3
I7
tp602
a(I2
I10
I5
I1
I4
I9
I6
I7
I0
I3
I8
tp603
a(I2
I10
I5
I1
I6
I0
I7
I4
I9
I3
I8
tp604
a(I2
I10
I5
I1
I6
I4
I0
I7
I9
I3
I8
tp605
a(I2
I10
I5
I1
I6
I7
I0
I8
I9
I3
I4
tp606
a(I2
I10
I5
I1
I6
I7
I4
I0
I9
I8
I3
tp607
a(I2
I10
I5
I1
I6
I7
I4
I3
I0
I9
I8
tp608
a(I2
I10
I5
I1
I6
I7
I4
I9
I3
I0
I8
tp609
a(I2
I10
I5
I1
I6
I7
I8
I0
I3
I4
I9
tp610
a(I2
I10
I5
I1
I6
I7
I8
I4
I9
I3
I0
tp611
a(I2
I10
I5
I1
I7
I0
I6
I9
I4
I3
I8
tp612
a(I2
I10
I5
I1
I7
I0
I9
I6
I3
I4
I8
tp613
a(I2
I10
I5
I1
I7
I3
I4
I0
I9
I6
I8
tp614
a(I2
I10
I5
I1
I7
I3
I9
I6
I0
I4
I8
tp615
a(I2
I10
I5
I1
I7
I4
I6
I9
I0
I3
I8
tp616
a(I2
I10
I5
I1
I7
I6
I0
I4
I9
I3
I8
tp617
a(I2
I10
I5
I1
I7
I8
I6
I0
I9
I3
I4
tp618
a(I2
I10
I5
I1
I7
I9
I6
I4
I0
I3
I8
tp619
a(I2
I10
I5
I1
I8
I4
I6
I0
I9
I3
I7
tp620
a(I2
I10
I5
I1
I8
I7
I0
I4
I9
I3
I6
tp621
a(I2
I10
I5
I1
I8
I7
I4
I0
I9
I6
I3
tp622
a(I2
I10
I5
I1
I8
I7
I6
I9
I0
I3
I4
tp623
a(I2
I10
I5
I1
I8
I7
I6
I9
I4
I3
I0
tp624
a(I2
I10
I5
I1
I8
I7
I9
I6
I0
I4
I3
tp625
a(I2
I10
I5
I1
I8
I7
I9
I6
I3
I4
I0
tp626
a(I2
I10
I5
I1
I9
I0
I6
I4
I7
I3
I8
tp627
a(I2
I10
I5
I1
I9
I0
I6
I7
I4
I3
I8
tp628
a(I2
I10
I5
I1
I9
I4
I6
I7
I0
I3
I8
tp629
a(I2
I10
I5
I1
I9
I7
I4
I3
I0
I6
I8
tp630
a(I2
I10
I5
I1
I9
I7
I6
I4
I8
I3
I0
tp631
a(I2
I10
I5
I1
I9
I7
I6
I8
I0
I3
I4
tp632
a(I2
I10
I5
I1
I9
I7
I6
I8
I4
I3
I0
tp633
a(I2
I10
I5
I4
I0
I7
I6
I9
I1
I3
I8
tp634
a(I2
I10
I5
I4
I1
I7
I6
I9
I0
I3
I8
tp635
a(I2
I10
I5
I4
I6
I7
I0
I1
I9
I3
I8
tp636
a(I2
I10
I5
I4
I8
I7
I6
I0
I9
I3
I1
tp637
a(I2
I10
I5
I4
I9
I7
I6
I1
I0
I3
I8
tp638
a(I2
I10
I5
I6
I0
I7
I1
I4
I9
I3
I8
tp639
a(I2
I10
I5
I6
I1
I7
I0
I4
I9
I3
I8
tp640
a(I2
I10
I5
I6
I4
I7
I0
I1
I9
I3
I8
tp641
a(I2
I10
I5
I7
I1
I4
I6
I0
I9
I3
I8
tp642
a(I2
I10
I6
I1
I0
I7
I4
I9
I5
I3
I8
tp643
a(I2
I10
I6
I1
I7
I5
I4
I0
I9
I3
I8
tp644
a(I2
I10
I6
I1
I8
I7
I4
I0
I9
I3
I5
tp645
a(I2
I10
I6
I5
I1
I7
I4
I0
I9
I3
I8
tp646
a(I2
I10
I7
I1
I6
I5
I4
I0
I9
I3
I8
tp647
a(I2
I10
I9
I1
I0
I7
I5
I6
I4
I3
I8
tp648
a(I2
I10
I9
I1
I4
I7
I0
I6
I5
I3
I8
tp649
a(I2
I10
I9
I1
I4
I7
I5
I6
I0
I3
I8
tp650
a(I3
I1
I0
I10
I2
I7
I9
I6
I5
I4
I8
tp651
a(I3
I1
I5
I0
I2
I7
I6
I4
I9
I10
I8
tp652
a(I3
I1
I5
I0
I10
I7
I9
I6
I2
I4
I8
tp653
a(I3
I1
I5
I2
I10
I7
I4
I0
I9
I6
I8
tp654
a(I3
I1
I5
I2
I10
I7
I9
I6
I0
I4
I8
tp655
a(I3
I1
I5
I4
I2
I7
I6
I10
I9
I0
I8
tp656
a(I3
I1
I5
I6
I2
I7
I0
I10
I9
I4
I8
tp657
a(I3
I1
I5
I6
I10
I7
I4
I0
I9
I2
I8
tp658
a(I3
I1
I5
I7
I2
I10
I6
I0
I9
I4
I8
tp659
a(I3
I1
I5
I10
I2
I7
I6
I4
I9
I0
I8
tp660
a(I3
I1
I5
I10
I2
I7
I6
I9
I0
I4
I8
tp661
a(I3
I2
I5
I0
I10
I7
I9
I6
I1
I4
I8
tp662
a(I3
I2
I5
I1
I0
I7
I4
I10
I9
I6
I8
tp663
a(I3
I2
I5
I1
I4
I7
I0
I6
I9
I10
I8
tp664
a(I3
I2
I5
I1
I4
I7
I10
I6
I9
I0
I8
tp665
a(I3
I2
I5
I1
I6
I7
I4
I10
I9
I0
I8
tp666
a(I3
I2
I5
I1
I9
I7
I10
I6
I0
I4
I8
tp667
a(I3
I2
I5
I1
I10
I0
I9
I6
I7
I4
I8
tp668
a(I3
I2
I5
I1
I10
I7
I0
I6
I4
I9
I8
tp669
a(I3
I2
I5
I1
I10
I7
I4
I0
I9
I8
I6
tp670
a(I3
I2
I5
I1
I10
I7
I4
I9
I0
I6
I8
tp671
a(I3
I2
I5
I1
I10
I7
I6
I0
I4
I8
I9
tp672
a(I3
I2
I5
I1
I10
I7
I9
I6
I8
I4
I0
tp673
a(I3
I4
I0
I1
I2
I5
I7
I6
I9
I10
I8
tp674
a(I3
I4
I0
I1
I2
I7
I6
I8
I5
I10
I9
tp675
a(I3
I4
I0
I1
I2
I7
I6
I10
I5
I8
I9
tp676
a(I3
I4
I0
I1
I2
I7
I6
I10
I8
I5
I9
tp677
a(I3
I4
I0
I1
I2
I7
I8
I6
I9
I10
I5
tp678
a(I3
I4
I0
I1
I2
I7
I10
I5
I8
I6
I9
tp679
a(I3
I4
I0
I1
I2
I7
I10
I6
I9
I8
I5
tp680
a(I3
I4
I0
I1
I2
I10
I7
I6
I9
I5
I8
tp681
a(I3
I4
I0
I5
I2
I7
I1
I6
I9
I10
I8
tp682
a(I3
I4
I0
I10
I2
I7
I1
I6
I9
I5
I8
tp683
a(I3
I4
I5
I0
I10
I7
I1
I6
I9
I2
I8
tp684
a(I3
I4
I5
I1
I10
I0
I7
I6
I9
I2
I8
tp685
a(I3
I4
I5
I1
I10
I2
I7
I6
I9
I0
I8
tp686
a(I3
I4
I5
I1
I10
I7
I0
I6
I9
I8
I2
tp687
a(I3
I4
I5
I1
I10
I7
I2
I6
I9
I8
I0
tp688
a(I3
I4
I5
I1
I10
I7
I6
I8
I0
I2
I9
tp689
a(I3
I4
I5
I1
I10
I7
I6
I8
I2
I0
I9
tp690
a(I3
I4
I5
I1
I10
I7
I8
I6
I9
I0
I2
tp691
a(I3
I4
I5
I1
I10
I7
I8
I6
I9
I2
I0
tp692
a(I3
I4
I5
I2
I10
I7
I1
I6
I9
I0
I8
tp693
a(I3
I4
I5
I8
I10
I7
I6
I0
I9
I2
I1
tp694
a(I3
I4
I10
I1
I2
I7
I6
I5
I0
I8
I9
tp695
a(I3
I4
I10
I1
I2
I7
I6
I5
I8
I0
I9
tp696
a(I3
I5
I0
I1
I2
I7
I10
I6
I4
I9
I8
tp697
a(I3
I5
I0
I1
I2
I10
I9
I6
I7
I4
I8
tp698
a(I3
I5
I0
I10
I2
I7
I9
I6
I1
I4
I8
tp699
a(I3
I5
I4
I1
I2
I7
I0
I6
I9
I10
I8
tp700
a(I3
I5
I4
I1
I2
I7
I10
I6
I9
I0
I8
tp701
a(I3
I5
I6
I1
I2
I7
I4
I10
I9
I0
I8
tp702
a(I3
I5
I9
I1
I2
I7
I10
I6
I0
I4
I8
tp703
a(I3
I5
I10
I1
I2
I7
I6
I0
I8
I4
I9
tp704
a(I3
I6
I0
I1
I2
I7
I4
I9
I5
I10
I8
tp705
a(I3
I6
I0
I1
I2
I7
I4
I10
I5
I9
I8
tp706
a(I3
I6
I5
I0
I2
I7
I1
I10
I9
I4
I8
tp707
a(I3
I6
I5
I0
I2
I7
I10
I1
I9
I4
I8
tp708
a(I3
I6
I5
I1
I0
I7
I4
I10
I9
I2
I8
tp709
a(I3
I6
I5
I1
I2
I0
I7
I10
I9
I4
I8
tp710
a(I3
I6
I5
I1
I2
I0
I10
I7
I9
I4
I8
tp711
a(I3
I6
I5
I1
I2
I7
I8
I10
I9
I4
I0
tp712
a(I3
I6
I5
I1
I2
I7
I10
I8
I9
I4
I0
tp713
a(I3
I6
I5
I1
I2
I10
I0
I7
I9
I4
I8
tp714
a(I3
I6
I5
I1
I10
I7
I2
I0
I8
I4
I9
tp715
a(I3
I6
I5
I1
I10
I7
I4
I0
I9
I8
I2
tp716
a(I3
I6
I5
I1
I10
I7
I4
I9
I0
I2
I8
tp717
a(I3
I6
I5
I1
I10
I7
I4
I9
I2
I0
I8
tp718
a(I3
I6
I5
I1
I10
I7
I8
I0
I2
I4
I9
tp719
a(I3
I6
I5
I10
I2
I7
I0
I1
I9
I4
I8
tp720
a(I3
I6
I9
I1
I2
I7
I4
I5
I0
I10
I8
tp721
a(I3
I6
I10
I1
I2
I7
I4
I5
I0
I9
I8
tp722
a(I3
I7
I0
I1
I2
I6
I9
I5
I4
I10
I8
tp723
a(I3
I7
I0
I1
I2
I6
I9
I10
I5
I4
I8
tp724
a(I3
I7
I0
I1
I2
I10
I9
I5
I4
I6
I8
tp725
a(I3
I7
I4
I1
I2
I5
I6
I0
I9
I10
I8
tp726
a(I3
I7
I4
I1
I2
I10
I6
I0
I9
I5
I8
tp727
a(I3
I7
I5
I1
I4
I2
I6
I0
I9
I10
I8
tp728
a(I3
I7
I5
I1
I4
I10
I6
I0
I9
I2
I8
tp729
a(I3
I7
I5
I1
I6
I2
I10
I0
I9
I4
I8
tp730
a(I3
I7
I5
I1
I6
I10
I2
I0
I9
I4
I8
tp731
a(I3
I7
I5
I1
I9
I10
I6
I0
I2
I4
I8
tp732
a(I3
I7
I5
I1
I10
I2
I6
I0
I4
I9
I8
tp733
a(I3
I7
I5
I1
I10
I4
I2
I0
I9
I6
I8
tp734
a(I3
I7
I5
I1
I10
I4
I6
I0
I2
I9
I8
tp735
a(I3
I7
I5
I1
I10
I9
I6
I0
I4
I2
I8
tp736
a(I3
I7
I6
I1
I2
I5
I10
I0
I9
I4
I8
tp737
a(I3
I7
I6
I1
I2
I10
I5
I0
I9
I4
I8
tp738
a(I3
I7
I6
I1
I2
I10
I9
I5
I0
I4
I8
tp739
a(I3
I7
I9
I1
I2
I10
I6
I0
I5
I4
I8
tp740
a(I3
I7
I10
I1
I2
I4
I6
I0
I9
I5
I8
tp741
a(I3
I7
I10
I1
I2
I6
I5
I0
I9
I4
I8
tp742
a(I3
I7
I10
I1
I2
I6
I9
I5
I0
I4
I8
tp743
a(I3
I7
I10
I1
I2
I9
I6
I0
I5
I4
I8
tp744
a(I3
I8
I5
I1
I2
I7
I0
I10
I9
I4
I6
tp745
a(I3
I8
I5
I1
I2
I7
I6
I4
I9
I10
I0
tp746
a(I3
I8
I5
I1
I2
I7
I6
I10
I9
I0
I4
tp747
a(I3
I8
I5
I1
I2
I10
I6
I0
I9
I4
I7
tp748
a(I3
I8
I5
I1
I10
I7
I4
I0
I9
I2
I6
tp749
a(I3
I8
I5
I1
I10
I7
I4
I0
I9
I6
I2
tp750
a(I3
I8
I5
I1
I10
I7
I6
I0
I4
I2
I9
tp751
a(I3
I8
I5
I1
I10
I7
I9
I6
I0
I4
I2
tp752
a(I3
I8
I5
I1
I10
I7
I9
I6
I2
I4
I0
tp753
a(I3
I8
I5
I10
I2
I7
I6
I0
I9
I4
I1
tp754
a(I3
I8
I10
I1
I2
I7
I6
I0
I5
I4
I9
tp755
a(I3
I9
I0
I1
I2
I7
I4
I10
I5
I6
I8
tp756
a(I3
I9
I0
I1
I2
I7
I5
I6
I4
I10
I8
tp757
a(I3
I9
I0
I1
I2
I7
I10
I6
I4
I5
I8
tp758
a(I3
I9
I5
I0
I2
I7
I6
I10
I1
I4
I8
tp759
a(I3
I9
I5
I1
I0
I7
I10
I6
I2
I4
I8
tp760
a(I3
I9
I5
I1
I2
I0
I6
I10
I7
I4
I8
tp761
a(I3
I9
I5
I1
I2
I7
I6
I10
I8
I4
I0
tp762
a(I3
I9
I5
I1
I2
I10
I6
I7
I0
I4
I8
tp763
a(I3
I9
I5
I1
I10
I7
I0
I6
I4
I2
I8
tp764
a(I3
I9
I5
I1
I10
I7
I2
I6
I4
I0
I8
tp765
a(I3
I9
I5
I10
I2
I7
I6
I1
I0
I4
I8
tp766
a(I3
I9
I6
I1
I2
I7
I4
I5
I0
I10
I8
tp767
a(I3
I9
I10
I1
I2
I7
I0
I6
I5
I4
I8
tp768
a(I3
I9
I10
I1
I2
I7
I4
I5
I0
I6
I8
tp769
a(I3
I9
I10
I1
I2
I7
I5
I6
I0
I4
I8
tp770
a(I3
I10
I0
I1
I2
I5
I9
I6
I7
I4
I8
tp771
a(I3
I10
I0
I1
I2
I7
I4
I9
I5
I6
I8
tp772
a(I3
I10
I0
I1
I2
I7
I5
I6
I4
I9
I8
tp773
a(I3
I10
I0
I1
I2
I7
I9
I6
I8
I4
I5
tp774
a(I3
I10
I0
I5
I2
I7
I9
I6
I1
I4
I8
tp775
a(I3
I10
I4
I1
I2
I7
I0
I6
I9
I5
I8
tp776
a(I3
I10
I4
I1
I2
I7
I5
I6
I9
I0
I8
tp777
a(I3
I10
I5
I0
I2
I7
I6
I9
I1
I4
I8
tp778
a(I3
I10
I5
I1
I2
I0
I6
I9
I7
I4
I8
tp779
a(I3
I10
I5
I1
I2
I4
I6
I7
I9
I0
I8
tp780
a(I3
I10
I5
I1
I2
I6
I0
I7
I9
I4
I8
tp781
a(I3
I10
I5
I1
I2
I7
I0
I8
I9
I4
I6
tp782
a(I3
I10
I5
I1
I2
I7
I6
I4
I9
I8
I0
tp783
a(I3
I10
I5
I1
I2
I7
I6
I8
I9
I0
I4
tp784
a(I3
I10
I5
I1
I2
I7
I6
I9
I8
I4
I0
tp785
a(I3
I10
I5
I1
I2
I8
I6
I0
I9
I4
I7
tp786
a(I3
I10
I5
I1
I2
I9
I6
I7
I0
I4
I8
tp787
a(I3
I10
I5
I1
I4
I7
I0
I6
I9
I2
I8
tp788
a(I3
I10
I5
I1
I4
I7
I2
I6
I9
I0
I8
tp789
a(I3
I10
I5
I1
I8
I7
I6
I0
I2
I4
I9
tp790
a(I3
I10
I5
I1
I9
I7
I0
I6
I2
I4
I8
tp791
a(I3
I10
I5
I1
I9
I7
I2
I6
I0
I4
I8
tp792
a(I3
I10
I5
I4
I2
I7
I6
I1
I9
I0
I8
tp793
a(I3
I10
I5
I6
I2
I7
I0
I1
I9
I4
I8
tp794
a(I3
I10
I6
I1
I2
I7
I4
I5
I0
I9
I8
tp795
a(I3
I10
I9
I1
I2
I7
I0
I6
I5
I4
I8
tp796
a(I3
I10
I9
I1
I2
I7
I4
I5
I0
I6
I8
tp797
a(I3
I10
I9
I1
I2
I7
I5
I6
I0
I4
I8
tp798
a(I5
I1
I0
I2
I10
I7
I9
I6
I4
I3
I8
tp799
a(I5
I1
I0
I4
I10
I7
I9
I6
I2
I3
I8
tp800
a(I5
I1
I0
I6
I2
I7
I10
I4
I9
I3
I8
tp801
a(I5
I1
I0
I10
I2
I7
I6
I9
I4
I3
I8
tp802
a(I5
I1
I0
I10
I2
I7
I9
I6
I3
I4
I8
tp803
a(I5
I1
I2
I6
I10
I7
I4
I0
I9
I3
I8
tp804
a(I5
I1
I4
I0
I2
I7
I6
I10
I9
I3
I8
tp805
a(I5
I1
I6
I2
I10
I7
I4
I0
I9
I3
I8
tp806
a(I5
I1
I10
I0
I2
I7
I6
I4
I9
I3
I8
tp807
a(I5
I2
I0
I1
I9
I7
I10
I6
I4
I3
I8
tp808
a(I5
I2
I0
I1
I10
I4
I9
I6
I7
I3
I8
tp809
a(I5
I2
I0
I1
I10
I7
I9
I6
I8
I3
I4
tp810
a(I5
I2
I0
I4
I10
I7
I9
I6
I1
I3
I8
tp811
a(I5
I2
I1
I6
I10
I7
I4
I0
I9
I3
I8
tp812
a(I5
I2
I4
I1
I0
I7
I10
I6
I9
I3
I8
tp813
a(I5
I2
I4
I1
I10
I7
I6
I0
I8
I3
I9
tp814
a(I5
I2
I6
I1
I0
I7
I4
I10
I9
I3
I8
tp815
a(I5
I2
I6
I1
I10
I7
I4
I9
I0
I3
I8
tp816
a(I5
I2
I7
I1
I10
I6
I4
I0
I9
I3
I8
tp817
a(I5
I2
I9
I1
I10
I7
I0
I6
I4
I3
I8
tp818
a(I5
I2
I10
I1
I4
I7
I0
I6
I9
I3
I8
tp819
a(I5
I3
I0
I1
I2
I4
I9
I6
I7
I10
I8
tp820
a(I5
I3
I0
I1
I2
I7
I9
I6
I8
I10
I4
tp821
a(I5
I3
I0
I4
I2
I7
I9
I6
I1
I10
I8
tp822
a(I5
I3
I1
I6
I2
I7
I4
I0
I9
I10
I8
tp823
a(I5
I3
I1
I10
I2
I7
I4
I0
I9
I6
I8
tp824
a(I5
I3
I1
I10
I2
I7
I9
I6
I0
I4
I8
tp825
a(I5
I3
I4
I1
I2
I7
I6
I0
I8
I10
I9
tp826
a(I5
I3
I4
I1
I2
I7
I10
I6
I0
I9
I8
tp827
a(I5
I3
I6
I1
I2
I7
I4
I9
I0
I10
I8
tp828
a(I5
I3
I6
I1
I2
I7
I4
I10
I0
I9
I8
tp829
a(I5
I3
I6
I1
I2
I7
I10
I0
I8
I4
I9
tp830
a(I5
I3
I7
I1
I2
I6
I4
I0
I9
I10
I8
tp831
a(I5
I3
I7
I1
I2
I10
I4
I0
I9
I6
I8
tp832
a(I5
I3
I7
I1
I2
I10
I9
I6
I0
I4
I8
tp833
a(I5
I3
I9
I1
I2
I7
I0
I6
I4
I10
I8
tp834
a(I5
I3
I9
I1
I2
I7
I4
I10
I0
I6
I8
tp835
a(I5
I3
I9
I1
I2
I7
I10
I6
I4
I0
I8
tp836
a(I5
I3
I10
I0
I2
I7
I9
I6
I1
I4
I8
tp837
a(I5
I3
I10
I1
I2
I0
I9
I6
I7
I4
I8
tp838
a(I5
I3
I10
I1
I2
I7
I0
I6
I4
I9
I8
tp839
a(I5
I3
I10
I1
I2
I7
I4
I0
I9
I8
I6
tp840
a(I5
I3
I10
I1
I2
I7
I4
I9
I0
I6
I8
tp841
a(I5
I3
I10
I1
I2
I7
I6
I0
I4
I8
I9
tp842
a(I5
I3
I10
I1
I2
I7
I9
I6
I8
I4
I0
tp843
a(I5
I4
I0
I1
I2
I3
I7
I6
I9
I10
I8
tp844
a(I5
I4
I0
I1
I2
I7
I6
I3
I8
I10
I9
tp845
a(I5
I4
I0
I1
I2
I7
I6
I8
I3
I10
I9
tp846
a(I5
I4
I0
I1
I2
I7
I6
I10
I3
I8
I9
tp847
a(I5
I4
I0
I1
I2
I7
I8
I6
I9
I10
I3
tp848
a(I5
I4
I0
I1
I2
I7
I10
I6
I9
I8
I3
tp849
a(I5
I4
I0
I1
I2
I8
I6
I10
I9
I3
I7
tp850
a(I5
I4
I0
I1
I2
I10
I6
I8
I9
I3
I7
tp851
a(I5
I4
I0
I1
I7
I2
I10
I6
I9
I3
I8
tp852
a(I5
I4
I0
I1
I7
I10
I2
I6
I9
I3
I8
tp853
a(I5
I4
I0
I1
I8
I7
I6
I10
I2
I3
I9
tp854
a(I5
I4
I0
I1
I8
I7
I10
I6
I9
I3
I2
tp855
a(I5
I4
I0
I1
I10
I9
I2
I6
I7
I3
I8
tp856
a(I5
I4
I0
I1
I10
I9
I7
I6
I2
I3
I8
tp857
a(I5
I4
I0
I2
I1
I7
I10
I6
I9
I3
I8
tp858
a(I5
I4
I0
I7
I2
I10
I6
I1
I9
I3
I8
tp859
a(I5
I4
I0
I10
I1
I7
I2
I6
I9
I3
I8
tp860
a(I5
I4
I0
I10
I2
I7
I6
I8
I9
I3
I1
tp861
a(I5
I4
I1
I0
I10
I7
I2
I6
I9
I3
I8
tp862
a(I5
I4
I1
I2
I10
I7
I0
I6
I9
I3
I8
tp863
a(I5
I4
I1
I8
I10
I7
I6
I0
I9
I3
I2
tp864
a(I5
I4
I2
I0
I10
I7
I1
I6
I9
I3
I8
tp865
a(I5
I4
I2
I1
I10
I0
I7
I6
I9
I3
I8
tp866
a(I5
I4
I2
I1
I10
I7
I6
I8
I0
I3
I9
tp867
a(I5
I4
I2
I1
I10
I7
I8
I6
I9
I3
I0
tp868
a(I5
I4
I2
I8
I10
I7
I6
I0
I9
I3
I1
tp869
a(I5
I4
I7
I1
I10
I0
I2
I6
I9
I3
I8
tp870
a(I5
I4
I7
I1
I10
I2
I0
I6
I9
I3
I8
tp871
a(I5
I6
I0
I1
I2
I4
I7
I10
I9
I3
I8
tp872
a(I5
I6
I0
I1
I2
I4
I10
I7
I9
I3
I8
tp873
a(I5
I6
I0
I1
I2
I7
I4
I9
I3
I10
I8
tp874
a(I5
I6
I0
I1
I2
I7
I4
I10
I3
I9
I8
tp875
a(I5
I6
I0
I1
I2
I7
I8
I10
I9
I3
I4
tp876
a(I5
I6
I0
I1
I2
I7
I10
I8
I9
I3
I4
tp877
a(I5
I6
I0
I1
I2
I10
I7
I4
I9
I3
I8
tp878
a(I5
I6
I0
I1
I9
I7
I4
I10
I2
I3
I8
tp879
a(I5
I6
I0
I4
I2
I7
I1
I10
I9
I3
I8
tp880
a(I5
I6
I0
I4
I2
I7
I10
I1
I9
I3
I8
tp881
a(I5
I6
I0
I10
I2
I7
I1
I4
I9
I3
I8
tp882
a(I5
I6
I1
I2
I10
I7
I4
I0
I9
I3
I8
tp883
a(I5
I6
I2
I1
I0
I7
I4
I10
I9
I3
I8
tp884
a(I5
I6
I2
I1
I10
I7
I4
I9
I0
I3
I8
tp885
a(I5
I6
I3
I1
I2
I7
I4
I10
I9
I0
I8
tp886
a(I5
I6
I7
I1
I10
I2
I4
I0
I9
I3
I8
tp887
a(I5
I6
I10
I1
I2
I7
I4
I3
I9
I0
I8
tp888
a(I5
I7
I0
I1
I2
I6
I9
I10
I3
I4
I8
tp889
a(I5
I7
I0
I1
I10
I6
I9
I4
I2
I3
I8
tp890
a(I5
I7
I2
I1
I4
I10
I6
I0
I9
I3
I8
tp891
a(I5
I7
I2
I1
I10
I9
I6
I0
I4
I3
I8
tp892
a(I5
I7
I3
I1
I2
I4
I6
I0
I9
I10
I8
tp893
a(I5
I7
I3
I1
I2
I6
I10
I0
I9
I4
I8
tp894
a(I5
I7
I4
I1
I2
I3
I6
I0
I9
I10
I8
tp895
a(I5
I7
I4
I1
I10
I6
I2
I0
I9
I3
I8
tp896
a(I5
I7
I4
I1
I10
I9
I6
I0
I2
I3
I8
tp897
a(I5
I7
I6
I1
I2
I3
I10
I0
I9
I4
I8
tp898
a(I5
I7
I6
I1
I10
I4
I2
I0
I9
I3
I8
tp899
a(I5
I7
I9
I1
I2
I10
I6
I0
I3
I4
I8
tp900
a(I5
I7
I9
I1
I10
I2
I6
I0
I4
I3
I8
tp901
a(I5
I7
I9
I1
I10
I4
I6
I0
I2
I3
I8
tp902
a(I5
I7
I10
I1
I2
I9
I6
I0
I3
I4
I8
tp903
a(I5
I7
I10
I1
I4
I2
I6
I0
I9
I3
I8
tp904
a(I5
I8
I0
I1
I2
I7
I10
I4
I9
I3
I6
tp905
a(I5
I8
I0
I1
I10
I7
I9
I6
I2
I3
I4
tp906
a(I5
I8
I0
I1
I10
I7
I9
I6
I4
I3
I2
tp907
a(I5
I8
I2
I1
I10
I7
I4
I0
I9
I3
I6
tp908
a(I5
I8
I2
I1
I10
I7
I6
I0
I4
I3
I9
tp909
a(I5
I8
I4
I1
I2
I7
I6
I10
I9
I3
I0
tp910
a(I5
I8
I4
I1
I10
I7
I6
I0
I2
I3
I9
tp911
a(I5
I8
I6
I1
I10
I7
I4
I0
I9
I3
I2
tp912
a(I5
I8
I10
I1
I2
I7
I6
I0
I3
I4
I9
tp913
a(I5
I8
I10
I1
I2
I7
I6
I4
I9
I3
I0
tp914
a(I5
I9
I0
I1
I2
I4
I6
I10
I7
I3
I8
tp915
a(I5
I9
I0
I1
I2
I7
I4
I10
I3
I6
I8
tp916
a(I5
I9
I0
I1
I2
I7
I6
I10
I8
I3
I4
tp917
a(I5
I9
I0
I1
I2
I10
I6
I4
I7
I3
I8
tp918
a(I5
I9
I0
I1
I2
I10
I6
I7
I4
I3
I8
tp919
a(I5
I9
I0
I1
I4
I7
I10
I6
I2
I3
I8
tp920
a(I5
I9
I0
I1
I6
I7
I4
I10
I2
I3
I8
tp921
a(I5
I9
I0
I4
I2
I7
I6
I10
I1
I3
I8
tp922
a(I5
I9
I0
I10
I2
I7
I6
I1
I4
I3
I8
tp923
a(I5
I9
I0
I10
I2
I7
I6
I4
I1
I3
I8
tp924
a(I5
I9
I2
I1
I10
I7
I0
I6
I4
I3
I8
tp925
a(I5
I9
I3
I1
I2
I7
I10
I6
I0
I4
I8
tp926
a(I5
I9
I4
I1
I10
I7
I0
I6
I2
I3
I8
tp927
a(I5
I9
I4
I1
I10
I7
I2
I6
I0
I3
I8
tp928
a(I5
I9
I10
I1
I2
I7
I0
I6
I3
I4
I8
tp929
a(I5
I10
I0
I1
I2
I3
I9
I6
I7
I4
I8
tp930
a(I5
I10
I0
I1
I2
I4
I6
I9
I7
I3
I8
tp931
a(I5
I10
I0
I1
I2
I6
I7
I4
I9
I3
I8
tp932
a(I5
I10
I0
I1
I2
I7
I4
I9
I3
I6
I8
tp933
a(I5
I10
I0
I1
I2
I7
I6
I9
I8
I3
I4
tp934
a(I5
I10
I0
I1
I2
I7
I8
I4
I9
I3
I6
tp935
a(I5
I10
I0
I1
I2
I7
I9
I6
I8
I4
I3
tp936
a(I5
I10
I0
I1
I2
I9
I6
I4
I7
I3
I8
tp937
a(I5
I10
I0
I1
I2
I9
I6
I7
I4
I3
I8
tp938
a(I5
I10
I0
I1
I6
I7
I4
I9
I2
I3
I8
tp939
a(I5
I10
I0
I1
I9
I7
I2
I6
I4
I3
I8
tp940
a(I5
I10
I0
I4
I2
I7
I6
I9
I1
I3
I8
tp941
a(I5
I10
I0
I6
I2
I7
I1
I4
I9
I3
I8
tp942
a(I5
I10
I1
I0
I2
I7
I6
I4
I9
I3
I8
tp943
a(I5
I10
I2
I1
I4
I7
I0
I6
I9
I3
I8
tp944
a(I5
I10
I3
I1
I2
I7
I6
I0
I8
I4
I9
tp945
a(I5
I10
I4
I0
I2
I7
I6
I1
I9
I3
I8
tp946
a(I5
I10
I4
I1
I0
I7
I2
I6
I9
I3
I8
tp947
a(I5
I10
I4
I1
I2
I0
I6
I7
I9
I3
I8
tp948
a(I5
I10
I4
I1
I2
I7
I6
I8
I9
I3
I0
tp949
a(I5
I10
I6
I1
I2
I7
I4
I3
I9
I0
I8
tp950
a(I5
I10
I7
I1
I2
I0
I6
I4
I9
I3
I8
tp951
a(I5
I10
I9
I1
I2
I7
I0
I6
I3
I4
I8
tp952
a(I6
I1
I0
I2
I10
I7
I4
I9
I5
I3
I8
tp953
a(I6
I1
I0
I4
I2
I10
I7
I5
I9
I3
I8
tp954
a(I6
I1
I0
I5
I2
I7
I4
I3
I9
I10
I8
tp955
a(I6
I1
I0
I5
I10
I7
I4
I9
I2
I3
I8
tp956
a(I6
I1
I0
I7
I2
I4
I10
I5
I9
I3
I8
tp957
a(I6
I1
I0
I8
I10
I7
I9
I5
I2
I3
I4
tp958
a(I6
I1
I0
I8
I10
I7
I9
I5
I4
I3
I2
tp959
a(I6
I1
I0
I10
I2
I4
I7
I5
I9
I3
I8
tp960
a(I6
I1
I0
I10
I2
I7
I4
I3
I9
I5
I8
tp961
a(I6
I1
I0
I10
I2
I7
I4
I5
I3
I9
I8
tp962
a(I6
I1
I0
I10
I2
I7
I8
I5
I9
I3
I4
tp963
a(I6
I1
I0
I10
I9
I7
I4
I5
I2
I3
I8
tp964
a(I6
I1
I2
I10
I0
I7
I4
I5
I9
I3
I8
tp965
a(I6
I1
I3
I0
I2
I7
I4
I5
I9
I10
I8
tp966
a(I6
I1
I3
I10
I2
I7
I4
I5
I9
I0
I8
tp967
a(I6
I1
I5
I0
I10
I7
I4
I3
I9
I2
I8
tp968
a(I6
I1
I5
I2
I10
I7
I4
I3
I9
I0
I8
tp969
a(I6
I1
I5
I8
I10
I7
I2
I0
I9
I4
I3
tp970
a(I6
I1
I9
I0
I10
I7
I4
I5
I2
I3
I8
tp971
a(I6
I1
I9
I2
I10
I7
I4
I5
I0
I3
I8
tp972
a(I6
I1
I10
I2
I0
I7
I4
I5
I9
I3
I8
tp973
a(I6
I2
I0
I1
I4
I7
I10
I5
I8
I3
I9
tp974
a(I6
I2
I0
I1
I7
I5
I4
I10
I9
I3
I8
tp975
a(I6
I2
I0
I1
I8
I7
I4
I10
I9
I3
I5
tp976
a(I6
I2
I0
I1
I8
I7
I10
I5
I4
I3
I9
tp977
a(I6
I2
I0
I1
I9
I10
I4
I5
I7
I3
I8
tp978
a(I6
I2
I0
I1
I10
I5
I4
I9
I7
I3
I8
tp979
a(I6
I2
I0
I1
I10
I7
I4
I9
I8
I3
I5
tp980
a(I6
I2
I0
I1
I10
I7
I5
I4
I8
I3
I9
tp981
a(I6
I2
I0
I1
I10
I7
I5
I8
I4
I3
I9
tp982
a(I6
I2
I0
I1
I10
I7
I8
I4
I5
I3
I9
tp983
a(I6
I2
I0
I1
I10
I9
I4
I7
I5
I3
I8
tp984
a(I6
I2
I0
I5
I1
I7
I4
I10
I9
I3
I8
tp985
a(I6
I2
I0
I5
I10
I7
I4
I9
I1
I3
I8
tp986
a(I6
I2
I0
I8
I10
I7
I9
I5
I1
I3
I4
tp987
a(I6
I2
I0
I8
I10
I7
I9
I5
I4
I3
I1
tp988
a(I6
I2
I0
I10
I9
I7
I4
I5
I1
I3
I8
tp989
a(I6
I2
I1
I10
I0
I7
I4
I5
I9
I3
I8
tp990
a(I6
I2
I4
I1
I10
I7
I0
I5
I8
I3
I9
tp991
a(I6
I2
I4
I1
I10
I7
I8
I5
I0
I3
I9
tp992
a(I6
I2
I5
I1
I10
I3
I4
I7
I9
I0
I8
tp993
a(I6
I2
I5
I1
I10
I7
I0
I3
I8
I4
I9
tp994
a(I6
I2
I5
I1
I10
I7
I0
I8
I3
I4
I9
tp995
a(I6
I2
I5
I1
I10
I7
I4
I3
I9
I8
I0
tp996
a(I6
I2
I5
I1
I10
I7
I4
I8
I9
I0
I3
tp997
a(I6
I2
I5
I1
I10
I7
I8
I3
I0
I4
I9
tp998
a(I6
I2
I5
I8
I10
I7
I1
I0
I9
I4
I3
tp999
a(I6
I2
I7
I1
I0
I10
I4
I5
I9
I3
I8
tp1000
a(I6
I2
I7
I1
I10
I9
I4
I5
I0
I3
I8
tp1001
a(I6
I2
I9
I0
I10
I7
I4
I5
I1
I3
I8
tp1002
a(I6
I2
I9
I1
I10
I0
I4
I5
I7
I3
I8
tp1003
a(I6
I2
I9
I1
I10
I7
I4
I5
I8
I3
I0
tp1004
a(I6
I2
I10
I0
I1
I7
I4
I5
I9
I3
I8
tp1005
a(I6
I2
I10
I1
I7
I0
I4
I5
I9
I3
I8
tp1006
a(I6
I2
I10
I1
I8
I7
I4
I5
I9
I3
I0
tp1007
a(I6
I3
I0
I1
I2
I5
I4
I9
I7
I10
I8
tp1008
a(I6
I3
I0
I1
I2
I5
I4
I10
I7
I9
I8
tp1009
a(I6
I3
I0
I1
I2
I7
I4
I9
I8
I10
I5
tp1010
a(I6
I3
I0
I1
I2
I7
I4
I10
I8
I9
I5
tp1011
a(I6
I3
I0
I1
I2
I7
I5
I4
I8
I10
I9
tp1012
a(I6
I3
I0
I1
I2
I7
I5
I8
I4
I10
I9
tp1013
a(I6
I3
I0
I1
I2
I7
I5
I10
I4
I8
I9
tp1014
a(I6
I3
I0
I1
I2
I7
I8
I4
I5
I10
I9
tp1015
a(I6
I3
I0
I1
I2
I7
I8
I10
I4
I5
I9
tp1016
a(I6
I3
I0
I1
I2
I7
I10
I4
I5
I8
I9
tp1017
a(I6
I3
I0
I1
I2
I7
I10
I4
I8
I5
I9
tp1018
a(I6
I3
I0
I1
I2
I7
I10
I8
I4
I5
I9
tp1019
a(I6
I3
I0
I1
I2
I9
I4
I7
I5
I10
I8
tp1020
a(I6
I3
I0
I1
I2
I9
I4
I10
I7
I5
I8
tp1021
a(I6
I3
I0
I1
I2
I10
I4
I7
I5
I9
I8
tp1022
a(I6
I3
I0
I1
I2
I10
I4
I9
I7
I5
I8
tp1023
a(I6
I3
I0
I5
I2
I7
I4
I9
I1
I10
I8
tp1024
a(I6
I3
I0
I5
I2
I7
I4
I10
I1
I9
I8
tp1025
a(I6
I3
I0
I8
I2
I7
I9
I5
I1
I10
I4
tp1026
a(I6
I3
I0
I8
I2
I7
I9
I5
I4
I10
I1
tp1027
a(I6
I3
I0
I8
I2
I7
I9
I10
I1
I4
I5
tp1028
a(I6
I3
I0
I8
I2
I7
I9
I10
I5
I4
I1
tp1029
a(I6
I3
I0
I10
I2
I7
I4
I1
I5
I9
I8
tp1030
a(I6
I3
I0
I10
I2
I7
I4
I9
I1
I5
I8
tp1031
a(I6
I3
I1
I0
I2
I7
I4
I10
I9
I5
I8
tp1032
a(I6
I3
I1
I5
I2
I7
I4
I10
I9
I0
I8
tp1033
a(I6
I3
I1
I8
I2
I7
I10
I0
I9
I4
I5
tp1034
a(I6
I3
I1
I10
I2
I7
I4
I5
I0
I9
I8
tp1035
a(I6
I3
I2
I1
I10
I7
I4
I0
I5
I8
I9
tp1036
a(I6
I3
I2
I1
I10
I7
I4
I0
I8
I5
I9
tp1037
a(I6
I3
I4
I1
I2
I7
I0
I5
I8
I10
I9
tp1038
a(I6
I3
I4
I1
I2
I7
I8
I5
I0
I10
I9
tp1039
a(I6
I3
I4
I1
I2
I7
I10
I5
I0
I8
I9
tp1040
a(I6
I3
I4
I1
I2
I7
I10
I5
I8
I0
I9
tp1041
a(I6
I3
I5
I0
I1
I7
I4
I10
I9
I2
I8
tp1042
a(I6
I3
I5
I0
I2
I7
I8
I10
I9
I4
I1
tp1043
a(I6
I3
I5
I0
I2
I7
I10
I8
I9
I4
I1
tp1044
a(I6
I3
I5
I0
I2
I10
I1
I7
I9
I4
I8
tp1045
a(I6
I3
I5
I0
I2
I10
I7
I1
I9
I4
I8
tp1046
a(I6
I3
I5
I0
I10
I7
I4
I1
I2
I9
I8
tp1047
a(I6
I3
I5
I0
I10
I7
I4
I9
I1
I2
I8
tp1048
a(I6
I3
I5
I1
I0
I2
I4
I7
I9
I10
I8
tp1049
a(I6
I3
I5
I1
I0
I7
I2
I10
I8
I4
I9
tp1050
a(I6
I3
I5
I1
I0
I7
I4
I8
I9
I10
I2
tp1051
a(I6
I3
I5
I1
I0
I7
I4
I10
I9
I8
I2
tp1052
a(I6
I3
I5
I1
I0
I7
I8
I10
I2
I4
I9
tp1053
a(I6
I3
I5
I1
I0
I7
I10
I8
I2
I4
I9
tp1054
a(I6
I3
I5
I1
I0
I10
I4
I7
I9
I2
I8
tp1055
a(I6
I3
I5
I1
I2
I0
I8
I10
I9
I4
I7
tp1056
a(I6
I3
I5
I1
I2
I0
I10
I8
I9
I4
I7
tp1057
a(I6
I3
I5
I1
I2
I8
I0
I10
I9
I4
I7
tp1058
a(I6
I3
I5
I1
I2
I8
I7
I10
I9
I4
I0
tp1059
a(I6
I3
I5
I1
I2
I8
I10
I7
I9
I4
I0
tp1060
a(I6
I3
I5
I1
I2
I10
I0
I8
I9
I4
I7
tp1061
a(I6
I3
I5
I1
I2
I10
I7
I8
I9
I4
I0
tp1062
a(I6
I3
I5
I1
I2
I10
I8
I7
I9
I4
I0
tp1063
a(I6
I3
I5
I1
I7
I0
I4
I10
I9
I2
I8
tp1064
a(I6
I3
I5
I1
I7
I2
I4
I10
I9
I0
I8
tp1065
a(I6
I3
I5
I1
I8
I7
I0
I10
I2
I4
I9
tp1066
a(I6
I3
I5
I1
I8
I7
I2
I10
I0
I4
I9
tp1067
a(I6
I3
I5
I1
I8
I7
I4
I10
I9
I0
I2
tp1068
a(I6
I3
I5
I1
I8
I7
I4
I10
I9
I2
I0
tp1069
a(I6
I3
I5
I1
I10
I0
I4
I7
I2
I9
I8
tp1070
a(I6
I3
I5
I1
I10
I0
I4
I9
I7
I2
I8
tp1071
a(I6
I3
I5
I1
I10
I2
I4
I0
I9
I8
I7
tp1072
a(I6
I3
I5
I1
I10
I2
I4
I7
I0
I9
I8
tp1073
a(I6
I3
I5
I1
I10
I2
I4
I9
I7
I0
I8
tp1074
a(I6
I3
I5
I1
I10
I2
I7
I0
I8
I4
I9
tp1075
a(I6
I3
I5
I1
I10
I2
I8
I0
I7
I4
I9
tp1076
a(I6
I3
I5
I1
I10
I7
I0
I4
I2
I8
I9
tp1077
a(I6
I3
I5
I1
I10
I7
I0
I4
I8
I2
I9
tp1078
a(I6
I3
I5
I1
I10
I7
I0
I8
I4
I2
I9
tp1079
a(I6
I3
I5
I1
I10
I7
I2
I4
I0
I8
I9
tp1080
a(I6
I3
I5
I1
I10
I7
I2
I4
I8
I0
I9
tp1081
a(I6
I3
I5
I1
I10
I7
I2
I8
I4
I0
I9
tp1082
a(I6
I3
I5
I1
I10
I7
I4
I8
I0
I9
I2
tp1083
a(I6
I3
I5
I1
I10
I7
I4
I8
I2
I9
I0
tp1084
a(I6
I3
I5
I1
I10
I7
I4
I9
I0
I8
I2
tp1085
a(I6
I3
I5
I1
I10
I7
I4
I9
I2
I8
I0
tp1086
a(I6
I3
I5
I1
I10
I7
I4
I9
I8
I0
I2
tp1087
a(I6
I3
I5
I1
I10
I7
I4
I9
I8
I2
I0
tp1088
a(I6
I3
I5
I1
I10
I7
I8
I4
I0
I2
I9
tp1089
a(I6
I3
I5
I1
I10
I7
I8
I4
I2
I0
I9
tp1090
a(I6
I3
I5
I1
I10
I8
I2
I0
I7
I4
I9
tp1091
a(I6
I3
I5
I1
I10
I8
I4
I0
I9
I2
I7
tp1092
a(I6
I3
I5
I1
I10
I8
I7
I0
I2
I4
I9
tp1093
a(I6
I3
I5
I1
I10
I9
I4
I7
I0
I2
I8
tp1094
a(I6
I3
I5
I1
I10
I9
I4
I7
I2
I0
I8
tp1095
a(I6
I3
I5
I2
I0
I7
I4
I1
I9
I10
I8
tp1096
a(I6
I3
I5
I2
I1
I7
I4
I10
I9
I0
I8
tp1097
a(I6
I3
I5
I2
I10
I7
I1
I0
I8
I4
I9
tp1098
a(I6
I3
I5
I2
I10
I7
I4
I0
I9
I8
I1
tp1099
a(I6
I3
I5
I2
I10
I7
I4
I1
I0
I9
I8
tp1100
a(I6
I3
I5
I2
I10
I7
I4
I9
I1
I0
I8
tp1101
a(I6
I3
I5
I2
I10
I7
I8
I0
I1
I4
I9
tp1102
a(I6
I3
I5
I7
I2
I0
I1
I10
I9
I4
I8
tp1103
a(I6
I3
I5
I7
I2
I0
I10
I1
I9
I4
I8
tp1104
a(I6
I3
I5
I7
I2
I10
I0
I1
I9
I4
I8
tp1105
a(I6
I3
I5
I8
I1
I7
I10
I0
I9
I4
I2
tp1106
a(I6
I3
I5
I8
I10
I7
I1
I0
I9
I2
I4
tp1107
a(I6
I3
I5
I8
I10
I7
I9
I1
I0
I4
I2
tp1108
a(I6
I3
I5
I8
I10
I7
I9
I1
I2
I4
I0
tp1109
a(I6
I3
I5
I10
I0
I7
I4
I1
I9
I2
I8
tp1110
a(I6
I3
I5
I10
I2
I0
I1
I7
I9
I4
I8
tp1111
a(I6
I3
I5
I10
I2
I0
I7
I1
I9
I4
I8
tp1112
a(I6
I3
I5
I10
I2
I7
I0
I8
I9
I4
I1
tp1113
a(I6
I3
I5
I10
I2
I7
I1
I8
I9
I4
I0
tp1114
a(I6
I3
I5
I10
I2
I7
I8
I1
I9
I4
I0
tp1115
a(I6
I3
I7
I1
I2
I0
I4
I10
I9
I5
I8
tp1116
a(I6
I3
I7
I1
I2
I5
I4
I10
I9
I0
I8
tp1117
a(I6
I3
I7
I1
I2
I9
I4
I5
I0
I10
I8
tp1118
a(I6
I3
I7
I1
I2
I10
I4
I5
I0
I9
I8
tp1119
a(I6
I3
I9
I0
I2
I7
I4
I5
I1
I10
I8
tp1120
a(I6
I3
I9
I1
I2
I0
I4
I5
I7
I10
I8
tp1121
a(I6
I3
I9
I1
I2
I7
I4
I5
I8
I10
I0
tp1122
a(I6
I3
I9
I1
I2
I10
I4
I5
I7
I0
I8
tp1123
a(I6
I3
I9
I10
I2
I7
I4
I5
I1
I0
I8
tp1124
a(I6
I3
I10
I0
I2
I7
I4
I1
I9
I5
I8
tp1125
a(I6
I3
I10
I0
I2
I7
I4
I5
I1
I9
I8
tp1126
a(I6
I3
I10
I1
I2
I0
I4
I5
I7
I9
I8
tp1127
a(I6
I3
I10
I1
I2
I0
I4
I7
I9
I5
I8
tp1128
a(I6
I3
I10
I1
I2
I5
I4
I7
I9
I0
I8
tp1129
a(I6
I3
I10
I1
I2
I7
I0
I5
I4
I8
I9
tp1130
a(I6
I3
I10
I1
I2
I7
I0
I8
I5
I4
I9
tp1131
a(I6
I3
I10
I1
I2
I7
I4
I5
I8
I9
I0
tp1132
a(I6
I3
I10
I1
I2
I7
I4
I8
I9
I0
I5
tp1133
a(I6
I3
I10
I1
I2
I7
I4
I8
I9
I5
I0
tp1134
a(I6
I3
I10
I1
I2
I7
I5
I8
I0
I4
I9
tp1135
a(I6
I3
I10
I1
I2
I7
I8
I5
I4
I0
I9
tp1136
a(I6
I3
I10
I1
I2
I9
I4
I5
I7
I0
I8
tp1137
a(I6
I3
I10
I5
I2
I7
I4
I1
I9
I0
I8
tp1138
a(I6
I3
I10
I8
I2
I7
I1
I0
I9
I4
I5
tp1139
a(I6
I3
I10
I8
I2
I7
I5
I0
I9
I4
I1
tp1140
a(I6
I3
I10
I8
I2
I7
I9
I5
I0
I4
I1
tp1141
a(I6
I3
I10
I8
I2
I7
I9
I5
I1
I4
I0
tp1142
a(I6
I4
I0
I1
I10
I2
I7
I5
I8
I3
I9
tp1143
a(I6
I4
I0
I1
I10
I2
I8
I5
I7
I3
I9
tp1144
a(I6
I4
I0
I1
I10
I8
I2
I5
I7
I3
I9
tp1145
a(I6
I4
I0
I1
I10
I8
I7
I5
I2
I3
I9
tp1146
a(I6
I4
I0
I2
I10
I7
I1
I5
I8
I3
I9
tp1147
a(I6
I4
I0
I2
I10
I7
I8
I5
I1
I3
I9
tp1148
a(I6
I4
I0
I8
I1
I7
I10
I5
I9
I3
I2
tp1149
a(I6
I4
I0
I8
I2
I7
I1
I5
I9
I10
I3
tp1150
a(I6
I4
I0
I8
I10
I7
I2
I1
I9
I3
I5
tp1151
a(I6
I4
I0
I8
I10
I7
I5
I1
I9
I3
I2
tp1152
a(I6
I4
I1
I8
I10
I7
I0
I5
I9
I3
I2
tp1153
a(I6
I4
I1
I8
I10
I7
I2
I5
I9
I3
I0
tp1154
a(I6
I4
I2
I8
I10
I7
I0
I5
I9
I3
I1
tp1155
a(I6
I4
I2
I8
I10
I7
I1
I5
I9
I3
I0
tp1156
a(I6
I5
I0
I1
I2
I3
I4
I7
I9
I10
I8
tp1157
a(I6
I5
I0
I1
I2
I7
I4
I8
I9
I10
I3
tp1158
a(I6
I5
I0
I1
I2
I7
I4
I10
I9
I8
I3
tp1159
a(I6
I5
I0
I1
I2
I7
I8
I10
I3
I4
I9
tp1160
a(I6
I5
I0
I1
I2
I7
I10
I3
I8
I4
I9
tp1161
a(I6
I5
I0
I1
I2
I7
I10
I8
I3
I4
I9
tp1162
a(I6
I5
I0
I1
I7
I2
I4
I10
I9
I3
I8
tp1163
a(I6
I5
I0
I1
I8
I7
I4
I10
I9
I3
I2
tp1164
a(I6
I5
I0
I1
I10
I2
I4
I9
I7
I3
I8
tp1165
a(I6
I5
I0
I1
I10
I7
I2
I4
I8
I3
I9
tp1166
a(I6
I5
I0
I1
I10
I7
I2
I8
I4
I3
I9
tp1167
a(I6
I5
I0
I1
I10
I7
I4
I9
I8
I3
I2
tp1168
a(I6
I5
I0
I1
I10
I7
I8
I4
I2
I3
I9
tp1169
a(I6
I5
I0
I1
I10
I9
I4
I7
I2
I3
I8
tp1170
a(I6
I5
I0
I2
I1
I7
I4
I10
I9
I3
I8
tp1171
a(I6
I5
I0
I2
I10
I7
I4
I9
I1
I3
I8
tp1172
a(I6
I5
I2
I0
I10
I7
I4
I1
I9
I3
I8
tp1173
a(I6
I5
I2
I1
I10
I0
I4
I7
I9
I3
I8
tp1174
a(I6
I5
I2
I1
I10
I7
I4
I8
I9
I3
I0
tp1175
a(I6
I7
I0
I1
I2
I3
I5
I4
I9
I10
I8
tp1176
a(I6
I7
I0
I1
I2
I3
I10
I4
I9
I5
I8
tp1177
a(I6
I7
I0
I1
I2
I3
I10
I5
I4
I9
I8
tp1178
a(I6
I7
I0
I1
I2
I3
I10
I9
I5
I4
I8
tp1179
a(I6
I7
I0
I1
I2
I4
I5
I3
I9
I10
I8
tp1180
a(I6
I7
I0
I1
I2
I4
I10
I3
I9
I5
I8
tp1181
a(I6
I7
I0
I1
I2
I4
I10
I5
I3
I9
I8
tp1182
a(I6
I7
I0
I1
I2
I5
I10
I9
I3
I4
I8
tp1183
a(I6
I7
I0
I1
I2
I9
I5
I10
I3
I4
I8
tp1184
a(I6
I7
I0
I1
I2
I9
I10
I3
I5
I4
I8
tp1185
a(I6
I7
I0
I1
I2
I10
I5
I9
I3
I4
I8
tp1186
a(I6
I7
I0
I1
I2
I10
I9
I5
I8
I4
I3
tp1187
a(I6
I7
I0
I1
I4
I2
I5
I10
I9
I3
I8
tp1188
a(I6
I7
I0
I1
I4
I5
I2
I10
I9
I3
I8
tp1189
a(I6
I7
I0
I1
I4
I9
I10
I5
I2
I3
I8
tp1190
a(I6
I7
I0
I1
I9
I2
I10
I5
I4
I3
I8
tp1191
a(I6
I7
I0
I1
I9
I4
I10
I5
I2
I3
I8
tp1192
a(I6
I7
I0
I1
I9
I10
I2
I5
I4
I3
I8
tp1193
a(I6
I7
I0
I1
I10
I2
I5
I9
I4
I3
I8
tp1194
a(I6
I7
I0
I1
I10
I2
I9
I5
I8
I3
I4
tp1195
a(I6
I7
I0
I1
I10
I4
I2
I9
I5
I3
I8
tp1196
a(I6
I7
I0
I1
I10
I4
I5
I9
I2
I3
I8
tp1197
a(I6
I7
I0
I1
I10
I4
I9
I5
I8
I3
I2
tp1198
a(I6
I7
I0
I1
I10
I5
I2
I9
I4
I3
I8
tp1199
a(I6
I7
I0
I1
I10
I8
I9
I5
I2
I3
I4
tp1200
a(I6
I7
I0
I1
I10
I8
I9
I5
I4
I3
I2
tp1201
a(I6
I7
I0
I1
I10
I9
I2
I4
I5
I3
I8
tp1202
a(I6
I7
I0
I1
I10
I9
I5
I4
I2
I3
I8
tp1203
a(I6
I7
I0
I2
I10
I4
I9
I5
I1
I3
I8
tp1204
a(I6
I7
I0
I4
I10
I2
I9
I5
I1
I3
I8
tp1205
a(I6
I7
I0
I10
I2
I3
I9
I5
I1
I4
I8
tp1206
a(I6
I7
I2
I1
I0
I4
I10
I5
I9
I3
I8
tp1207
a(I6
I7
I2
I1
I4
I0
I10
I5
I9
I3
I8
tp1208
a(I6
I7
I2
I1
I4
I10
I0
I5
I9
I3
I8
tp1209
a(I6
I7
I2
I1
I10
I0
I5
I4
I9
I3
I8
tp1210
a(I6
I7
I2
I1
I10
I3
I4
I0
I9
I5
I8
tp1211
a(I6
I7
I2
I1
I10
I5
I0
I4
I9
I3
I8
tp1212
a(I6
I7
I2
I1
I10
I9
I0
I5
I4
I3
I8
tp1213
a(I6
I7
I3
I1
I2
I0
I5
I10
I9
I4
I8
tp1214
a(I6
I7
I3
I1
I2
I4
I0
I5
I9
I10
I8
tp1215
a(I6
I7
I3
I1
I2
I4
I10
I5
I9
I0
I8
tp1216
a(I6
I7
I3
I1
I2
I5
I0
I10
I9
I4
I8
tp1217
a(I6
I7
I3
I1
I2
I9
I10
I5
I0
I4
I8
tp1218
a(I6
I7
I3
I1
I10
I2
I4
I0
I9
I5
I8
tp1219
a(I6
I7
I3
I1
I10
I5
I4
I0
I9
I2
I8
tp1220
a(I6
I7
I4
I1
I0
I2
I10
I5
I9
I3
I8
tp1221
a(I6
I7
I4
I1
I0
I10
I2
I5
I9
I3
I8
tp1222
a(I6
I7
I4
I1
I2
I3
I0
I5
I9
I10
I8
tp1223
a(I6
I7
I4
I1
I2
I3
I10
I5
I9
I0
I8
tp1224
a(I6
I7
I4
I1
I10
I9
I0
I5
I2
I3
I8
tp1225
a(I6
I7
I4
I1
I10
I9
I2
I5
I0
I3
I8
tp1226
a(I6
I7
I5
I1
I0
I2
I10
I3
I9
I4
I8
tp1227
a(I6
I7
I5
I1
I0
I3
I2
I10
I9
I4
I8
tp1228
a(I6
I7
I5
I1
I0
I10
I2
I3
I9
I4
I8
tp1229
a(I6
I7
I5
I1
I3
I0
I2
I10
I9
I4
I8
tp1230
a(I6
I7
I5
I1
I3
I2
I0
I10
I9
I4
I8
tp1231
a(I6
I7
I5
I1
I10
I0
I2
I9
I3
I4
I8
tp1232
a(I6
I7
I5
I1
I10
I2
I0
I9
I3
I4
I8
tp1233
a(I6
I7
I5
I1
I10
I2
I8
I0
I9
I4
I3
tp1234
a(I6
I7
I5
I1
I10
I3
I0
I4
I9
I2
I8
tp1235
a(I6
I7
I5
I1
I10
I3
I0
I9
I2
I4
I8
tp1236
a(I6
I7
I5
I1
I10
I3
I2
I4
I9
I0
I8
tp1237
a(I6
I7
I5
I1
I10
I3
I2
I9
I0
I4
I8
tp1238
a(I6
I7
I5
I1
I10
I3
I8
I0
I9
I4
I2
tp1239
a(I6
I7
I5
I1
I10
I4
I0
I3
I9
I2
I8
tp1240
a(I6
I7
I5
I1
I10
I4
I2
I3
I9
I0
I8
tp1241
a(I6
I7
I5
I1
I10
I8
I2
I0
I9
I4
I3
tp1242
a(I6
I7
I5
I1
I10
I9
I0
I3
I2
I4
I8
tp1243
a(I6
I7
I5
I1
I10
I9
I2
I3
I0
I4
I8
tp1244
a(I6
I7
I5
I2
I10
I3
I1
I0
I9
I4
I8
tp1245
a(I6
I7
I9
I1
I2
I0
I10
I5
I3
I4
I8
tp1246
a(I6
I7
I9
I1
I2
I3
I10
I5
I0
I4
I8
tp1247
a(I6
I7
I9
I1
I2
I10
I0
I5
I3
I4
I8
tp1248
a(I6
I7
I9
I1
I10
I0
I2
I5
I4
I3
I8
tp1249
a(I6
I7
I9
I1
I10
I2
I0
I5
I4
I3
I8
tp1250
a(I6
I7
I9
I1
I10
I4
I0
I5
I2
I3
I8
tp1251
a(I6
I7
I9
I1
I10
I4
I2
I5
I0
I3
I8
tp1252
a(I6
I7
I10
I1
I0
I4
I2
I5
I9
I3
I8
tp1253
a(I6
I7
I10
I1
I2
I0
I5
I3
I9
I4
I8
tp1254
a(I6
I7
I10
I1
I2
I5
I0
I3
I9
I4
I8
tp1255
a(I6
I7
I10
I1
I2
I9
I0
I5
I3
I4
I8
tp1256
a(I6
I7
I10
I1
I4
I0
I2
I5
I9
I3
I8
tp1257
a(I6
I7
I10
I1
I4
I2
I0
I5
I9
I3
I8
tp1258
a(I6
I8
I0
I1
I2
I4
I10
I5
I9
I3
I7
tp1259
a(I6
I8
I0
I1
I2
I7
I4
I3
I9
I10
I5
tp1260
a(I6
I8
I0
I1
I2
I7
I4
I10
I9
I5
I3
tp1261
a(I6
I8
I0
I1
I2
I7
I5
I10
I3
I4
I9
tp1262
a(I6
I8
I0
I1
I2
I7
I10
I3
I5
I4
I9
tp1263
a(I6
I8
I0
I1
I2
I10
I7
I5
I9
I3
I4
tp1264
a(I6
I8
I0
I1
I4
I7
I10
I5
I2
I3
I9
tp1265
a(I6
I8
I0
I1
I10
I7
I2
I4
I5
I3
I9
tp1266
a(I6
I8
I0
I1
I10
I7
I4
I9
I2
I3
I5
tp1267
a(I6
I8
I0
I1
I10
I7
I4
I9
I5
I3
I2
tp1268
a(I6
I8
I0
I1
I10
I7
I5
I4
I2
I3
I9
tp1269
a(I6
I8
I0
I4
I2
I7
I10
I5
I9
I3
I1
tp1270
a(I6
I8
I0
I10
I2
I7
I1
I5
I9
I3
I4
tp1271
a(I6
I8
I2
I1
I10
I7
I0
I5
I4
I3
I9
tp1272
a(I6
I8
I3
I1
I2
I7
I4
I5
I9
I10
I0
tp1273
a(I6
I8
I3
I1
I2
I7
I10
I5
I0
I4
I9
tp1274
a(I6
I8
I4
I1
I10
I7
I0
I5
I2
I3
I9
tp1275
a(I6
I8
I4
I1
I10
I7
I2
I5
I0
I3
I9
tp1276
a(I6
I8
I5
I1
I10
I7
I0
I3
I2
I4
I9
tp1277
a(I6
I8
I5
I1
I10
I7
I2
I3
I0
I4
I9
tp1278
a(I6
I8
I5
I1
I10
I7
I4
I3
I9
I0
I2
tp1279
a(I6
I8
I5
I1
I10
I7
I4
I3
I9
I2
I0
tp1280
a(I6
I8
I9
I1
I10
I7
I4
I5
I0
I3
I2
tp1281
a(I6
I8
I9
I1
I10
I7
I4
I5
I2
I3
I0
tp1282
a(I6
I8
I10
I1
I0
I7
I4
I5
I9
I3
I2
tp1283
a(I6
I8
I10
I1
I2
I7
I0
I5
I3
I4
I9
tp1284
a(I6
I8
I10
I1
I2
I7
I4
I5
I9
I0
I3
tp1285
a(I6
I9
I0
I1
I2
I3
I4
I5
I7
I10
I8
tp1286
a(I6
I9
I0
I1
I2
I7
I4
I5
I8
I10
I3
tp1287
a(I6
I9
I0
I1
I7
I10
I4
I5
I2
I3
I8
tp1288
a(I6
I9
I0
I1
I10
I2
I4
I7
I5
I3
I8
tp1289
a(I6
I9
I0
I1
I10
I5
I4
I7
I2
I3
I8
tp1290
a(I6
I9
I0
I1
I10
I7
I4
I8
I2
I3
I5
tp1291
a(I6
I9
I0
I1
I10
I7
I4
I8
I5
I3
I2
tp1292
a(I6
I9
I0
I2
I10
I7
I4
I1
I5
I3
I8
tp1293
a(I6
I9
I0
I5
I10
I7
I4
I1
I2
I3
I8
tp1294
a(I6
I9
I0
I10
I1
I7
I4
I5
I2
I3
I8
tp1295
a(I6
I9
I1
I0
I10
I7
I4
I5
I2
I3
I8
tp1296
a(I6
I9
I1
I2
I10
I7
I4
I5
I0
I3
I8
tp1297
a(I6
I9
I2
I0
I10
I7
I4
I5
I1
I3
I8
tp1298
a(I6
I9
I2
I1
I10
I0
I4
I5
I7
I3
I8
tp1299
a(I6
I9
I2
I1
I10
I7
I4
I5
I8
I3
I0
tp1300
a(I6
I9
I7
I1
I10
I0
I4
I5
I2
I3
I8
tp1301
a(I6
I9
I7
I1
I10
I2
I4
I5
I0
I3
I8
tp1302
a(I6
I10
I0
I1
I2
I3
I4
I5
I7
I9
I8
tp1303
a(I6
I10
I0
I1
I2
I3
I4
I7
I9
I5
I8
tp1304
a(I6
I10
I0
I1
I2
I4
I8
I5
I9
I3
I7
tp1305
a(I6
I10
I0
I1
I2
I7
I4
I3
I9
I8
I5
tp1306
a(I6
I10
I0
I1
I2
I7
I4
I5
I8
I9
I3
tp1307
a(I6
I10
I0
I1
I2
I7
I4
I8
I9
I5
I3
tp1308
a(I6
I10
I0
I1
I2
I7
I5
I3
I8
I4
I9
tp1309
a(I6
I10
I0
I1
I2
I7
I5
I8
I3
I4
I9
tp1310
a(I6
I10
I0
I1
I2
I7
I8
I3
I5
I4
I9
tp1311
a(I6
I10
I0
I1
I2
I8
I7
I5
I9
I3
I4
tp1312
a(I6
I10
I0
I1
I4
I7
I2
I5
I8
I3
I9
tp1313
a(I6
I10
I0
I1
I4
I7
I8
I5
I2
I3
I9
tp1314
a(I6
I10
I0
I1
I7
I9
I4
I5
I2
I3
I8
tp1315
a(I6
I10
I0
I1
I8
I7
I2
I5
I4
I3
I9
tp1316
a(I6
I10
I0
I1
I9
I2
I4
I5
I7
I3
I8
tp1317
a(I6
I10
I0
I1
I9
I7
I4
I5
I8
I3
I2
tp1318
a(I6
I10
I0
I2
I9
I7
I4
I5
I1
I3
I8
tp1319
a(I6
I10
I0
I4
I2
I7
I8
I5
I9
I3
I1
tp1320
a(I6
I10
I0
I7
I2
I4
I1
I5
I9
I3
I8
tp1321
a(I6
I10
I0
I8
I2
I7
I9
I5
I1
I4
I3
tp1322
a(I6
I10
I0
I8
I2
I7
I9
I5
I3
I4
I1
tp1323
a(I6
I10
I1
I2
I0
I7
I4
I5
I9
I3
I8
tp1324
a(I6
I10
I2
I0
I1
I7
I4
I5
I9
I3
I8
tp1325
a(I6
I10
I2
I1
I7
I0
I4
I5
I9
I3
I8
tp1326
a(I6
I10
I2
I1
I8
I7
I4
I5
I9
I3
I0
tp1327
a(I6
I10
I3
I1
I2
I7
I0
I5
I8
I4
I9
tp1328
a(I6
I10
I3
I1
I2
I7
I4
I5
I9
I8
I0
tp1329
a(I6
I10
I3
I1
I2
I7
I8
I5
I0
I4
I9
tp1330
a(I6
I10
I7
I1
I0
I2
I4
I5
I9
I3
I8
tp1331
a(I6
I10
I7
I1
I2
I3
I4
I5
I9
I0
I8
tp1332
a(I7
I1
I5
I2
I10
I4
I6
I0
I9
I3
I8
tp1333
a(I7
I1
I5
I4
I10
I2
I6
I0
I9
I3
I8
tp1334
a(I7
I1
I5
I10
I2
I3
I6
I0
I9
I4
I8
tp1335
a(I7
I2
I0
I1
I10
I4
I9
I6
I5
I3
I8
tp1336
a(I7
I2
I0
I1
I10
I5
I9
I6
I4
I3
I8
tp1337
a(I7
I2
I5
I1
I0
I4
I6
I10
I9
I3
I8
tp1338
a(I7
I2
I5
I1
I0
I10
I6
I4
I9
I3
I8
tp1339
a(I7
I2
I5
I1
I4
I0
I6
I10
I9
I3
I8
tp1340
a(I7
I2
I5
I1
I10
I0
I6
I9
I4
I3
I8
tp1341
a(I7
I2
I5
I1
I10
I0
I9
I6
I3
I4
I8
tp1342
a(I7
I2
I5
I1
I10
I3
I4
I0
I9
I6
I8
tp1343
a(I7
I2
I5
I1
I10
I3
I9
I6
I0
I4
I8
tp1344
a(I7
I2
I5
I1
I10
I4
I6
I9
I0
I3
I8
tp1345
a(I7
I2
I5
I1
I10
I6
I0
I4
I9
I3
I8
tp1346
a(I7
I2
I5
I1
I10
I8
I6
I0
I9
I3
I4
tp1347
a(I7
I2
I5
I1
I10
I9
I6
I4
I0
I3
I8
tp1348
a(I7
I2
I6
I1
I10
I5
I4
I0
I9
I3
I8
tp1349
a(I7
I3
I0
I1
I2
I4
I9
I6
I5
I10
I8
tp1350
a(I7
I3
I0
I1
I2
I5
I9
I6
I4
I10
I8
tp1351
a(I7
I3
I0
I1
I2
I10
I9
I6
I4
I5
I8
tp1352
a(I7
I3
I5
I1
I0
I10
I9
I6
I2
I4
I8
tp1353
a(I7
I3
I5
I1
I2
I0
I6
I9
I4
I10
I8
tp1354
a(I7
I3
I5
I1
I2
I0
I6
I10
I4
I9
I8
tp1355
a(I7
I3
I5
I1
I2
I0
I10
I4
I9
I6
I8
tp1356
a(I7
I3
I5
I1
I2
I4
I0
I10
I9
I6
I8
tp1357
a(I7
I3
I5
I1
I2
I4
I6
I9
I0
I10
I8
tp1358
a(I7
I3
I5
I1
I2
I4
I6
I10
I0
I9
I8
tp1359
a(I7
I3
I5
I1
I2
I6
I0
I4
I9
I10
I8
tp1360
a(I7
I3
I5
I1
I2
I6
I10
I4
I9
I0
I8
tp1361
a(I7
I3
I5
I1
I2
I6
I10
I9
I0
I4
I8
tp1362
a(I7
I3
I5
I1
I2
I8
I6
I0
I9
I10
I4
tp1363
a(I7
I3
I5
I1
I2
I8
I10
I0
I9
I4
I6
tp1364
a(I7
I3
I5
I1
I2
I9
I6
I4
I0
I10
I8
tp1365
a(I7
I3
I5
I1
I2
I9
I6
I10
I4
I0
I8
tp1366
a(I7
I3
I5
I1
I2
I10
I0
I4
I9
I6
I8
tp1367
a(I7
I3
I5
I1
I2
I10
I6
I0
I9
I8
I4
tp1368
a(I7
I3
I5
I1
I2
I10
I6
I4
I0
I9
I8
tp1369
a(I7
I3
I5
I1
I2
I10
I6
I9
I4
I0
I8
tp1370
a(I7
I3
I5
I1
I2
I10
I8
I0
I9
I4
I6
tp1371
a(I7
I3
I5
I1
I6
I2
I4
I0
I9
I10
I8
tp1372
a(I7
I3
I5
I1
I6
I10
I4
I0
I9
I2
I8
tp1373
a(I7
I3
I5
I1
I10
I0
I9
I6
I4
I2
I8
tp1374
a(I7
I3
I5
I1
I10
I2
I9
I6
I4
I0
I8
tp1375
a(I7
I3
I5
I1
I10
I4
I9
I6
I0
I2
I8
tp1376
a(I7
I3
I5
I1
I10
I4
I9
I6
I2
I0
I8
tp1377
a(I7
I3
I5
I1
I10
I6
I4
I0
I2
I9
I8
tp1378
a(I7
I3
I5
I1
I10
I9
I4
I0
I2
I6
I8
tp1379
a(I7
I3
I5
I6
I2
I10
I1
I0
I9
I4
I8
tp1380
a(I7
I3
I5
I10
I2
I6
I1
I0
I9
I4
I8
tp1381
a(I7
I3
I5
I10
I2
I9
I6
I0
I1
I4
I8
tp1382
a(I7
I3
I6
I1
I2
I5
I4
I0
I9
I10
I8
tp1383
a(I7
I3
I6
I1
I2
I10
I4
I0
I9
I5
I8
tp1384
a(I7
I3
I10
I1
I2
I0
I9
I6
I5
I4
I8
tp1385
a(I7
I3
I10
I1
I2
I5
I4
I0
I9
I6
I8
tp1386
a(I7
I3
I10
I1
I2
I5
I9
I6
I0
I4
I8
tp1387
a(I7
I3
I10
I1
I2
I6
I4
I0
I9
I5
I8
tp1388
a(I7
I4
I0
I1
I2
I3
I5
I6
I9
I10
I8
tp1389
a(I7
I4
I0
I1
I2
I3
I10
I6
I9
I5
I8
tp1390
a(I7
I4
I0
I1
I2
I8
I6
I10
I9
I3
I5
tp1391
a(I7
I4
I0
I1
I2
I8
I10
I5
I9
I3
I6
tp1392
a(I7
I4
I0
I1
I2
I10
I6
I8
I9
I3
I5
tp1393
a(I7
I4
I0
I1
I2
I10
I8
I5
I9
I3
I6
tp1394
a(I7
I4
I0
I1
I10
I9
I2
I6
I5
I3
I8
tp1395
a(I7
I4
I0
I1
I10
I9
I5
I6
I2
I3
I8
tp1396
a(I7
I4
I0
I5
I2
I10
I6
I1
I9
I3
I8
tp1397
a(I7
I4
I0
I6
I2
I10
I1
I5
I9
I3
I8
tp1398
a(I7
I4
I0
I10
I2
I5
I6
I1
I9
I3
I8
tp1399
a(I7
I4
I0
I10
I2
I6
I1
I5
I9
I3
I8
tp1400
a(I7
I4
I0
I10
I2
I9
I6
I5
I1
I3
I8
tp1401
a(I7
I4
I1
I0
I2
I10
I6
I5
I9
I3
I8
tp1402
a(I7
I4
I1
I10
I2
I0
I6
I5
I9
I3
I8
tp1403
a(I7
I4
I2
I1
I10
I0
I5
I6
I9
I3
I8
tp1404
a(I7
I4
I2
I1
I10
I5
I0
I6
I9
I3
I8
tp1405
a(I7
I4
I5
I0
I10
I2
I6
I1
I9
I3
I8
tp1406
a(I7
I4
I5
I1
I10
I0
I6
I8
I9
I3
I2
tp1407
a(I7
I4
I5
I1
I10
I2
I6
I8
I9
I3
I0
tp1408
a(I7
I4
I5
I1
I10
I3
I0
I6
I9
I2
I8
tp1409
a(I7
I4
I5
I1
I10
I3
I2
I6
I9
I0
I8
tp1410
a(I7
I4
I5
I2
I10
I0
I6
I1
I9
I3
I8
tp1411
a(I7
I4
I10
I1
I2
I8
I6
I5
I9
I3
I0
tp1412
a(I7
I5
I0
I1
I2
I6
I10
I4
I9
I3
I8
tp1413
a(I7
I5
I0
I1
I2
I9
I6
I10
I4
I3
I8
tp1414
a(I7
I5
I0
I1
I2
I10
I6
I9
I4
I3
I8
tp1415
a(I7
I5
I0
I1
I2
I10
I9
I6
I3
I4
I8
tp1416
a(I7
I5
I0
I1
I10
I2
I9
I6
I4
I3
I8
tp1417
a(I7
I5
I0
I1
I10
I4
I9
I6
I2
I3
I8
tp1418
a(I7
I5
I2
I1
I10
I6
I4
I0
I9
I3
I8
tp1419
a(I7
I5
I4
I1
I2
I0
I6
I10
I9
I3
I8
tp1420
a(I7
I5
I6
I1
I10
I2
I4
I0
I9
I3
I8
tp1421
a(I7
I5
I10
I1
I2
I0
I6
I4
I9
I3
I8
tp1422
a(I7
I6
I0
I1
I2
I4
I5
I10
I9
I3
I8
tp1423
a(I7
I6
I0
I1
I2
I5
I10
I4
I9
I3
I8
tp1424
a(I7
I6
I0
I1
I2
I9
I10
I5
I4
I3
I8
tp1425
a(I7
I6
I0
I1
I2
I10
I5
I4
I9
I3
I8
tp1426
a(I7
I6
I2
I1
I10
I5
I4
I0
I9
I3
I8
tp1427
a(I7
I6
I4
I1
I2
I0
I10
I5
I9
I3
I8
tp1428
a(I7
I6
I4
I1
I2
I10
I0
I5
I9
I3
I8
tp1429
a(I7
I6
I5
I1
I2
I0
I10
I3
I9
I4
I8
tp1430
a(I7
I6
I5
I1
I2
I3
I0
I10
I9
I4
I8
tp1431
a(I7
I6
I5
I1
I2
I10
I0
I3
I9
I4
I8
tp1432
a(I7
I6
I5
I1
I10
I0
I2
I4
I9
I3
I8
tp1433
a(I7
I6
I5
I1
I10
I2
I0
I4
I9
I3
I8
tp1434
a(I7
I6
I5
I1
I10
I3
I4
I0
I9
I2
I8
tp1435
a(I7
I6
I10
I1
I2
I4
I0
I5
I9
I3
I8
tp1436
a(I7
I8
I5
I1
I2
I10
I6
I0
I9
I4
I3
tp1437
a(I7
I8
I5
I1
I10
I2
I6
I0
I9
I3
I4
tp1438
a(I7
I8
I5
I1
I10
I4
I6
I0
I9
I3
I2
tp1439
a(I7
I9
I0
I1
I2
I4
I6
I10
I5
I3
I8
tp1440
a(I7
I9
I0
I1
I2
I5
I6
I10
I4
I3
I8
tp1441
a(I7
I9
I0
I1
I2
I6
I10
I5
I4
I3
I8
tp1442
a(I7
I9
I0
I1
I2
I10
I6
I4
I5
I3
I8
tp1443
a(I7
I9
I4
I1
I2
I10
I6
I5
I0
I3
I8
tp1444
a(I7
I9
I5
I1
I2
I0
I6
I10
I3
I4
I8
tp1445
a(I7
I9
I5
I1
I2
I3
I6
I10
I0
I4
I8
tp1446
a(I7
I9
I5
I1
I2
I10
I6
I3
I0
I4
I8
tp1447
a(I7
I9
I5
I1
I10
I0
I6
I4
I2
I3
I8
tp1448
a(I7
I9
I5
I1
I10
I2
I6
I4
I0
I3
I8
tp1449
a(I7
I9
I10
I1
I2
I0
I6
I5
I4
I3
I8
tp1450
a(I7
I9
I10
I1
I2
I4
I6
I5
I0
I3
I8
tp1451
a(I7
I10
I0
I1
I2
I3
I9
I6
I5
I4
I8
tp1452
a(I7
I10
I0
I1
I2
I4
I6
I9
I5
I3
I8
tp1453
a(I7
I10
I0
I1
I2
I5
I6
I9
I4
I3
I8
tp1454
a(I7
I10
I0
I1
I2
I5
I9
I6
I3
I4
I8
tp1455
a(I7
I10
I0
I1
I2
I6
I5
I4
I9
I3
I8
tp1456
a(I7
I10
I0
I1
I2
I9
I6
I4
I5
I3
I8
tp1457
a(I7
I10
I4
I1
I2
I6
I0
I5
I9
I3
I8
tp1458
a(I7
I10
I4
I1
I2
I9
I6
I5
I0
I3
I8
tp1459
a(I7
I10
I5
I1
I0
I2
I6
I4
I9
I3
I8
tp1460
a(I7
I10
I5
I1
I2
I0
I6
I9
I3
I4
I8
tp1461
a(I7
I10
I5
I1
I2
I3
I6
I4
I9
I0
I8
tp1462
a(I7
I10
I5
I1
I2
I3
I6
I9
I0
I4
I8
tp1463
a(I7
I10
I5
I1
I2
I4
I6
I3
I9
I0
I8
tp1464
a(I7
I10
I5
I1
I2
I6
I0
I3
I9
I4
I8
tp1465
a(I7
I10
I5
I1
I2
I8
I6
I0
I9
I4
I3
tp1466
a(I7
I10
I5
I1
I2
I9
I6
I3
I0
I4
I8
tp1467
a(I7
I10
I6
I1
I2
I4
I0
I5
I9
I3
I8
tp1468
a(I7
I10
I9
I1
I2
I0
I6
I5
I4
I3
I8
tp1469
a(I7
I10
I9
I1
I2
I4
I6
I5
I0
I3
I8
tp1470
a(I8
I1
I5
I2
I10
I7
I6
I0
I9
I3
I4
tp1471
a(I8
I1
I5
I4
I10
I7
I6
I0
I9
I3
I2
tp1472
a(I8
I1
I5
I10
I2
I7
I6
I0
I9
I4
I3
tp1473
a(I8
I2
I0
I1
I10
I7
I9
I6
I4
I3
I5
tp1474
a(I8
I2
I0
I1
I10
I7
I9
I6
I5
I3
I4
tp1475
a(I8
I2
I4
I1
I10
I7
I6
I0
I5
I3
I9
tp1476
a(I8
I2
I5
I1
I0
I7
I6
I10
I9
I3
I4
tp1477
a(I8
I2
I5
I1
I4
I7
I6
I10
I9
I3
I0
tp1478
a(I8
I2
I5
I1
I10
I4
I6
I0
I9
I3
I7
tp1479
a(I8
I2
I5
I1
I10
I7
I0
I4
I9
I3
I6
tp1480
a(I8
I2
I5
I1
I10
I7
I4
I0
I9
I6
I3
tp1481
a(I8
I2
I5
I1
I10
I7
I6
I9
I0
I3
I4
tp1482
a(I8
I2
I5
I1
I10
I7
I6
I9
I4
I3
I0
tp1483
a(I8
I2
I5
I1
I10
I7
I9
I6
I0
I4
I3
tp1484
a(I8
I2
I5
I1
I10
I7
I9
I6
I3
I4
I0
tp1485
a(I8
I2
I5
I4
I10
I7
I6
I0
I9
I3
I1
tp1486
a(I8
I2
I6
I1
I10
I7
I4
I0
I9
I3
I5
tp1487
a(I8
I3
I0
I1
I2
I7
I9
I6
I4
I10
I5
tp1488
a(I8
I3
I0
I1
I2
I7
I9
I6
I5
I10
I4
tp1489
a(I8
I3
I4
I1
I2
I7
I6
I0
I5
I10
I9
tp1490
a(I8
I3
I5
I1
I2
I4
I6
I0
I9
I10
I7
tp1491
a(I8
I3
I5
I1
I2
I6
I10
I0
I9
I4
I7
tp1492
a(I8
I3
I5
I1
I2
I7
I0
I4
I9
I10
I6
tp1493
a(I8
I3
I5
I1
I2
I7
I0
I10
I9
I6
I4
tp1494
a(I8
I3
I5
I1
I2
I7
I6
I9
I0
I10
I4
tp1495
a(I8
I3
I5
I1
I2
I7
I6
I9
I4
I10
I0
tp1496
a(I8
I3
I5
I1
I2
I7
I6
I10
I0
I9
I4
tp1497
a(I8
I3
I5
I1
I2
I7
I6
I10
I4
I9
I0
tp1498
a(I8
I3
I5
I1
I2
I7
I10
I4
I9
I0
I6
tp1499
a(I8
I3
I5
I1
I2
I7
I10
I4
I9
I6
I0
tp1500
a(I8
I3
I5
I1
I2
I7
I10
I9
I0
I4
I6
tp1501
a(I8
I3
I5
I1
I2
I10
I7
I0
I9
I4
I6
tp1502
a(I8
I3
I5
I1
I4
I7
I6
I0
I2
I10
I9
tp1503
a(I8
I3
I5
I1
I6
I7
I4
I0
I9
I10
I2
tp1504
a(I8
I3
I5
I1
I6
I7
I10
I0
I2
I4
I9
tp1505
a(I8
I3
I5
I1
I10
I7
I2
I0
I4
I6
I9
tp1506
a(I8
I3
I5
I1
I10
I7
I4
I0
I2
I9
I6
tp1507
a(I8
I3
I5
I1
I10
I7
I9
I6
I0
I2
I4
tp1508
a(I8
I3
I5
I1
I10
I7
I9
I6
I2
I0
I4
tp1509
a(I8
I3
I5
I1
I10
I7
I9
I6
I4
I0
I2
tp1510
a(I8
I3
I5
I1
I10
I7
I9
I6
I4
I2
I0
tp1511
a(I8
I3
I5
I4
I2
I7
I6
I0
I9
I10
I1
tp1512
a(I8
I3
I5
I6
I2
I7
I10
I0
I9
I4
I1
tp1513
a(I8
I3
I5
I10
I2
I7
I1
I0
I9
I4
I6
tp1514
a(I8
I3
I6
I1
I2
I7
I4
I0
I9
I10
I5
tp1515
a(I8
I3
I6
I1
I2
I7
I10
I0
I5
I4
I9
tp1516
a(I8
I3
I10
I1
I2
I7
I4
I0
I9
I5
I6
tp1517
a(I8
I3
I10
I1
I2
I7
I4
I0
I9
I6
I5
tp1518
a(I8
I3
I10
I1
I2
I7
I6
I0
I4
I5
I9
tp1519
a(I8
I3
I10
I1
I2
I7
I9
I6
I0
I4
I5
tp1520
a(I8
I3
I10
I1
I2
I7
I9
I6
I5
I4
I0
tp1521
a(I8
I4
I0
I1
I2
I5
I6
I10
I9
I3
I7
tp1522
a(I8
I4
I0
I1
I2
I6
I10
I5
I9
I3
I7
tp1523
a(I8
I4
I0
I1
I2
I7
I5
I6
I9
I10
I3
tp1524
a(I8
I4
I0
I1
I2
I7
I6
I3
I5
I10
I9
tp1525
a(I8
I4
I0
I1
I2
I7
I6
I10
I3
I5
I9
tp1526
a(I8
I4
I0
I1
I2
I7
I10
I5
I3
I6
I9
tp1527
a(I8
I4
I0
I1
I2
I7
I10
I6
I9
I5
I3
tp1528
a(I8
I4
I0
I1
I2
I10
I6
I7
I9
I3
I5
tp1529
a(I8
I4
I0
I1
I2
I10
I7
I5
I9
I3
I6
tp1530
a(I8
I4
I0
I1
I6
I7
I10
I5
I2
I3
I9
tp1531
a(I8
I4
I0
I5
I2
I7
I6
I10
I9
I3
I1
tp1532
a(I8
I4
I0
I6
I2
I7
I10
I5
I9
I3
I1
tp1533
a(I8
I4
I0
I10
I2
I7
I1
I5
I9
I3
I6
tp1534
a(I8
I4
I0
I10
I2
I7
I6
I1
I9
I3
I5
tp1535
a(I8
I4
I1
I10
I2
I7
I6
I5
I9
I3
I0
tp1536
a(I8
I4
I2
I1
I10
I7
I0
I6
I9
I3
I5
tp1537
a(I8
I4
I2
I1
I10
I7
I5
I6
I9
I3
I0
tp1538
a(I8
I4
I3
I1
I2
I7
I6
I5
I0
I10
I9
tp1539
a(I8
I4
I5
I0
I10
I7
I6
I1
I9
I3
I2
tp1540
a(I8
I4
I5
I1
I10
I0
I6
I7
I9
I3
I2
tp1541
a(I8
I4
I5
I1
I10
I2
I6
I7
I9
I3
I0
tp1542
a(I8
I4
I5
I1
I10
I7
I0
I6
I9
I2
I3
tp1543
a(I8
I4
I5
I1
I10
I7
I2
I6
I9
I0
I3
tp1544
a(I8
I4
I5
I1
I10
I7
I6
I3
I0
I2
I9
tp1545
a(I8
I4
I5
I1
I10
I7
I6
I3
I2
I0
I9
tp1546
a(I8
I4
I5
I2
I10
I7
I6
I1
I9
I3
I0
tp1547
a(I8
I4
I6
I1
I10
I7
I0
I5
I2
I3
I9
tp1548
a(I8
I4
I6
I1
I10
I7
I2
I5
I0
I3
I9
tp1549
a(I8
I4
I7
I1
I2
I10
I6
I5
I9
I3
I0
tp1550
a(I8
I4
I10
I0
I2
I7
I6
I5
I9
I3
I1
tp1551
a(I8
I4
I10
I1
I0
I7
I6
I5
I2
I3
I9
tp1552
a(I8
I4
I10
I1
I2
I0
I6
I5
I9
I3
I7
tp1553
a(I8
I4
I10
I1
I2
I7
I6
I5
I3
I0
I9
tp1554
a(I8
I5
I0
I1
I2
I7
I10
I4
I9
I3
I6
tp1555
a(I8
I5
I0
I1
I10
I7
I9
I6
I2
I3
I4
tp1556
a(I8
I5
I0
I1
I10
I7
I9
I6
I4
I3
I2
tp1557
a(I8
I5
I2
I1
I10
I7
I4
I0
I9
I3
I6
tp1558
a(I8
I5
I2
I1
I10
I7
I6
I0
I4
I3
I9
tp1559
a(I8
I5
I4
I1
I2
I7
I6
I10
I9
I3
I0
tp1560
a(I8
I5
I4
I1
I10
I7
I6
I0
I2
I3
I9
tp1561
a(I8
I5
I6
I1
I10
I7
I4
I0
I9
I3
I2
tp1562
a(I8
I5
I10
I1
I2
I7
I6
I0
I3
I4
I9
tp1563
a(I8
I5
I10
I1
I2
I7
I6
I4
I9
I3
I0
tp1564
a(I8
I6
I0
I1
I2
I7
I5
I10
I9
I3
I4
tp1565
a(I8
I6
I0
I1
I2
I7
I10
I4
I9
I3
I5
tp1566
a(I8
I6
I2
I1
I10
I7
I4
I0
I9
I3
I5
tp1567
a(I8
I6
I4
I1
I2
I7
I10
I5
I9
I3
I0
tp1568
a(I8
I6
I5
I1
I2
I7
I0
I10
I9
I4
I3
tp1569
a(I8
I6
I5
I1
I2
I7
I10
I3
I9
I4
I0
tp1570
a(I8
I6
I5
I1
I10
I7
I0
I4
I9
I3
I2
tp1571
a(I8
I6
I5
I1
I10
I7
I2
I0
I3
I4
I9
tp1572
a(I8
I6
I5
I1
I10
I7
I2
I4
I9
I3
I0
tp1573
a(I8
I6
I5
I1
I10
I7
I4
I0
I9
I2
I3
tp1574
a(I8
I6
I10
I1
I2
I7
I0
I5
I9
I3
I4
tp1575
a(I8
I9
I0
I1
I2
I7
I6
I10
I4
I3
I5
tp1576
a(I8
I9
I0
I1
I2
I7
I6
I10
I5
I3
I4
tp1577
a(I8
I9
I0
I1
I2
I7
I10
I5
I4
I3
I6
tp1578
a(I8
I9
I5
I1
I2
I7
I6
I10
I0
I4
I3
tp1579
a(I8
I9
I5
I1
I2
I7
I6
I10
I3
I4
I0
tp1580
a(I8
I9
I5
I1
I10
I7
I6
I4
I0
I3
I2
tp1581
a(I8
I9
I5
I1
I10
I7
I6
I4
I2
I3
I0
tp1582
a(I8
I9
I10
I1
I2
I7
I6
I5
I0
I3
I4
tp1583
a(I8
I9
I10
I1
I2
I7
I6
I5
I4
I3
I0
tp1584
a(I8
I10
I0
I1
I2
I7
I5
I4
I9
I3
I6
tp1585
a(I8
I10
I0
I1
I2
I7
I6
I9
I4
I3
I5
tp1586
a(I8
I10
I0
I1
I2
I7
I6
I9
I5
I3
I4
tp1587
a(I8
I10
I0
I1
I2
I7
I9
I6
I3
I4
I5
tp1588
a(I8
I10
I0
I1
I2
I7
I9
I6
I5
I4
I3
tp1589
a(I8
I10
I3
I1
I2
I7
I6
I0
I5
I4
I9
tp1590
a(I8
I10
I4
I1
I2
I7
I0
I5
I9
I3
I6
tp1591
a(I8
I10
I5
I1
I0
I7
I6
I4
I9
I3
I2
tp1592
a(I8
I10
I5
I1
I2
I3
I6
I0
I9
I4
I7
tp1593
a(I8
I10
I5
I1
I2
I7
I0
I3
I9
I4
I6
tp1594
a(I8
I10
I5
I1
I2
I7
I6
I3
I9
I0
I4
tp1595
a(I8
I10
I5
I1
I2
I7
I6
I4
I9
I0
I3
tp1596
a(I8
I10
I5
I1
I2
I7
I6
I9
I0
I4
I3
tp1597
a(I8
I10
I5
I1
I2
I7
I6
I9
I3
I4
I0
tp1598
a(I8
I10
I5
I1
I3
I7
I6
I0
I2
I4
I9
tp1599
a(I8
I10
I6
I1
I2
I7
I0
I5
I9
I3
I4
tp1600
a(I8
I10
I9
I1
I2
I7
I6
I5
I0
I3
I4
tp1601
a(I8
I10
I9
I1
I2
I7
I6
I5
I4
I3
I0
tp1602
a(I9
I1
I0
I4
I2
I7
I6
I10
I5
I3
I8
tp1603
a(I9
I1
I0
I5
I2
I7
I6
I10
I4
I3
I8
tp1604
a(I9
I1
I0
I6
I2
I7
I10
I5
I4
I3
I8
tp1605
a(I9
I1
I0
I10
I2
I7
I6
I4
I5
I3
I8
tp1606
a(I9
I1
I4
I10
I2
I7
I6
I5
I0
I3
I8
tp1607
a(I9
I1
I5
I0
I2
I7
I6
I10
I3
I4
I8
tp1608
a(I9
I1
I5
I0
I10
I7
I6
I4
I2
I3
I8
tp1609
a(I9
I1
I5
I2
I10
I7
I6
I4
I0
I3
I8
tp1610
a(I9
I1
I5
I10
I2
I7
I6
I3
I0
I4
I8
tp1611
a(I9
I1
I10
I0
I2
I7
I6
I5
I4
I3
I8
tp1612
a(I9
I1
I10
I4
I2
I7
I6
I5
I0
I3
I8
tp1613
a(I9
I2
I0
I1
I4
I7
I10
I6
I5
I3
I8
tp1614
a(I9
I2
I0
I1
I6
I7
I4
I10
I5
I3
I8
tp1615
a(I9
I2
I4
I1
I10
I7
I0
I6
I5
I3
I8
tp1616
a(I9
I2
I4
I1
I10
I7
I5
I6
I0
I3
I8
tp1617
a(I9
I2
I5
I0
I10
I7
I6
I1
I4
I3
I8
tp1618
a(I9
I2
I5
I0
I10
I7
I6
I4
I1
I3
I8
tp1619
a(I9
I2
I5
I1
I0
I7
I10
I6
I3
I4
I8
tp1620
a(I9
I2
I5
I1
I3
I7
I10
I6
I0
I4
I8
tp1621
a(I9
I2
I5
I1
I10
I0
I6
I4
I7
I3
I8
tp1622
a(I9
I2
I5
I1
I10
I0
I6
I7
I4
I3
I8
tp1623
a(I9
I2
I5
I1
I10
I4
I6
I7
I0
I3
I8
tp1624
a(I9
I2
I5
I1
I10
I7
I4
I3
I0
I6
I8
tp1625
a(I9
I2
I5
I1
I10
I7
I6
I4
I8
I3
I0
tp1626
a(I9
I2
I5
I1
I10
I7
I6
I8
I0
I3
I4
tp1627
a(I9
I2
I5
I1
I10
I7
I6
I8
I4
I3
I0
tp1628
a(I9
I2
I5
I4
I10
I7
I6
I1
I0
I3
I8
tp1629
a(I9
I2
I10
I1
I6
I7
I4
I5
I0
I3
I8
tp1630
a(I9
I3
I4
I1
I2
I7
I0
I6
I5
I10
I8
tp1631
a(I9
I3
I4
I1
I2
I7
I5
I6
I0
I10
I8
tp1632
a(I9
I3
I4
I1
I2
I7
I10
I6
I0
I5
I8
tp1633
a(I9
I3
I4
I1
I2
I7
I10
I6
I5
I0
I8
tp1634
a(I9
I3
I5
I0
I2
I7
I6
I1
I4
I10
I8
tp1635
a(I9
I3
I5
I0
I2
I7
I6
I4
I1
I10
I8
tp1636
a(I9
I3
I5
I1
I0
I7
I2
I6
I4
I10
I8
tp1637
a(I9
I3
I5
I1
I0
I7
I4
I10
I2
I6
I8
tp1638
a(I9
I3
I5
I1
I0
I7
I10
I6
I4
I2
I8
tp1639
a(I9
I3
I5
I1
I2
I0
I6
I4
I7
I10
I8
tp1640
a(I9
I3
I5
I1
I2
I0
I6
I7
I4
I10
I8
tp1641
a(I9
I3
I5
I1
I2
I4
I6
I7
I0
I10
I8
tp1642
a(I9
I3
I5
I1
I2
I4
I6
I10
I7
I0
I8
tp1643
a(I9
I3
I5
I1
I2
I6
I0
I10
I7
I4
I8
tp1644
a(I9
I3
I5
I1
I2
I6
I7
I10
I0
I4
I8
tp1645
a(I9
I3
I5
I1
I2
I6
I10
I7
I0
I4
I8
tp1646
a(I9
I3
I5
I1
I2
I7
I0
I10
I8
I4
I6
tp1647
a(I9
I3
I5
I1
I2
I7
I6
I4
I8
I10
I0
tp1648
a(I9
I3
I5
I1
I2
I7
I6
I8
I0
I10
I4
tp1649
a(I9
I3
I5
I1
I2
I7
I6
I8
I4
I10
I0
tp1650
a(I9
I3
I5
I1
I2
I7
I6
I10
I0
I8
I4
tp1651
a(I9
I3
I5
I1
I2
I7
I6
I10
I4
I8
I0
tp1652
a(I9
I3
I5
I1
I2
I7
I6
I10
I8
I0
I4
tp1653
a(I9
I3
I5
I1
I2
I7
I8
I10
I0
I4
I6
tp1654
a(I9
I3
I5
I1
I2
I7
I10
I8
I0
I4
I6
tp1655
a(I9
I3
I5
I1
I2
I10
I6
I0
I8
I4
I7
tp1656
a(I9
I3
I5
I1
I2
I10
I6
I4
I7
I0
I8
tp1657
a(I9
I3
I5
I1
I2
I10
I6
I7
I4
I0
I8
tp1658
a(I9
I3
I5
I1
I4
I7
I0
I6
I2
I10
I8
tp1659
a(I9
I3
I5
I1
I4
I7
I2
I6
I0
I10
I8
tp1660
a(I9
I3
I5
I1
I4
I7
I10
I6
I0
I2
I8
tp1661
a(I9
I3
I5
I1
I4
I7
I10
I6
I2
I0
I8
tp1662
a(I9
I3
I5
I1
I6
I7
I4
I10
I0
I2
I8
tp1663
a(I9
I3
I5
I1
I6
I7
I4
I10
I2
I0
I8
tp1664
a(I9
I3
I5
I1
I10
I2
I4
I0
I7
I6
I8
tp1665
a(I9
I3
I5
I1
I10
I6
I4
I0
I7
I2
I8
tp1666
a(I9
I3
I5
I1
I10
I7
I4
I0
I2
I8
I6
tp1667
a(I9
I3
I5
I1
I10
I7
I4
I0
I8
I2
I6
tp1668
a(I9
I3
I5
I1
I10
I7
I4
I0
I8
I6
I2
tp1669
a(I9
I3
I5
I2
I10
I7
I4
I0
I1
I6
I8
tp1670
a(I9
I3
I5
I4
I2
I7
I6
I1
I0
I10
I8
tp1671
a(I9
I3
I5
I4
I2
I7
I6
I10
I1
I0
I8
tp1672
a(I9
I3
I5
I6
I2
I7
I0
I10
I1
I4
I8
tp1673
a(I9
I3
I5
I6
I2
I7
I1
I10
I0
I4
I8
tp1674
a(I9
I3
I5
I6
I2
I7
I10
I1
I0
I4
I8
tp1675
a(I9
I3
I5
I6
I10
I7
I4
I0
I1
I2
I8
tp1676
a(I9
I3
I5
I7
I2
I10
I6
I0
I1
I4
I8
tp1677
a(I9
I3
I5
I10
I2
I7
I6
I0
I8
I4
I1
tp1678
a(I9
I3
I5
I10
I2
I7
I6
I1
I4
I0
I8
tp1679
a(I9
I3
I5
I10
I2
I7
I6
I4
I1
I0
I8
tp1680
a(I9
I3
I6
I1
I2
I7
I4
I10
I0
I5
I8
tp1681
a(I9
I3
I6
I1
I2
I7
I4
I10
I5
I0
I8
tp1682
a(I9
I3
I10
I1
I2
I7
I0
I6
I4
I5
I8
tp1683
a(I9
I3
I10
I1
I2
I7
I5
I6
I4
I0
I8
tp1684
a(I9
I4
I0
I1
I2
I10
I6
I5
I8
I3
I7
tp1685
a(I9
I4
I0
I1
I10
I2
I5
I6
I7
I3
I8
tp1686
a(I9
I4
I0
I1
I10
I2
I7
I6
I5
I3
I8
tp1687
a(I9
I4
I0
I1
I10
I5
I2
I6
I7
I3
I8
tp1688
a(I9
I4
I0
I1
I10
I5
I7
I6
I2
I3
I8
tp1689
a(I9
I4
I0
I1
I10
I7
I2
I6
I8
I3
I5
tp1690
a(I9
I4
I0
I1
I10
I7
I5
I6
I8
I3
I2
tp1691
a(I9
I4
I0
I1
I10
I7
I8
I6
I2
I3
I5
tp1692
a(I9
I4
I0
I1
I10
I7
I8
I6
I5
I3
I2
tp1693
a(I9
I4
I0
I2
I10
I7
I1
I6
I5
I3
I8
tp1694
a(I9
I4
I0
I2
I10
I7
I5
I6
I1
I3
I8
tp1695
a(I9
I4
I0
I5
I10
I7
I1
I6
I2
I3
I8
tp1696
a(I9
I4
I0
I5
I10
I7
I2
I6
I1
I3
I8
tp1697
a(I9
I4
I0
I7
I2
I10
I6
I5
I1
I3
I8
tp1698
a(I9
I4
I0
I10
I2
I7
I6
I5
I8
I3
I1
tp1699
a(I9
I5
I0
I1
I2
I4
I6
I10
I7
I3
I8
tp1700
a(I9
I5
I0
I1
I2
I7
I4
I10
I3
I6
I8
tp1701
a(I9
I5
I0
I1
I2
I7
I6
I10
I8
I3
I4
tp1702
a(I9
I5
I0
I1
I2
I10
I6
I4
I7
I3
I8
tp1703
a(I9
I5
I0
I1
I2
I10
I6
I7
I4
I3
I8
tp1704
a(I9
I5
I0
I1
I4
I7
I10
I6
I2
I3
I8
tp1705
a(I9
I5
I0
I1
I6
I7
I4
I10
I2
I3
I8
tp1706
a(I9
I5
I0
I4
I2
I7
I6
I10
I1
I3
I8
tp1707
a(I9
I5
I0
I10
I2
I7
I6
I1
I4
I3
I8
tp1708
a(I9
I5
I0
I10
I2
I7
I6
I4
I1
I3
I8
tp1709
a(I9
I5
I2
I1
I10
I7
I0
I6
I4
I3
I8
tp1710
a(I9
I5
I3
I1
I2
I7
I10
I6
I0
I4
I8
tp1711
a(I9
I5
I4
I1
I10
I7
I0
I6
I2
I3
I8
tp1712
a(I9
I5
I4
I1
I10
I7
I2
I6
I0
I3
I8
tp1713
a(I9
I5
I10
I1
I2
I7
I0
I6
I3
I4
I8
tp1714
a(I9
I6
I0
I1
I2
I4
I10
I5
I7
I3
I8
tp1715
a(I9
I6
I0
I1
I2
I7
I4
I3
I5
I10
I8
tp1716
a(I9
I6
I0
I1
I2
I7
I4
I10
I3
I5
I8
tp1717
a(I9
I6
I0
I1
I2
I7
I10
I5
I8
I3
I4
tp1718
a(I9
I6
I0
I1
I2
I10
I7
I5
I4
I3
I8
tp1719
a(I9
I6
I0
I4
I2
I7
I10
I5
I1
I3
I8
tp1720
a(I9
I6
I0
I10
I2
I7
I1
I5
I4
I3
I8
tp1721
a(I9
I6
I3
I1
I2
I7
I4
I5
I0
I10
I8
tp1722
a(I9
I6
I5
I1
I10
I7
I4
I3
I0
I2
I8
tp1723
a(I9
I6
I5
I1
I10
I7
I4
I3
I2
I0
I8
tp1724
a(I9
I6
I10
I1
I0
I7
I4
I5
I2
I3
I8
tp1725
a(I9
I6
I10
I1
I2
I7
I4
I5
I3
I0
I8
tp1726
a(I9
I7
I2
I1
I10
I4
I6
I0
I5
I3
I8
tp1727
a(I9
I7
I2
I1
I10
I5
I6
I0
I4
I3
I8
tp1728
a(I9
I7
I3
I1
I2
I10
I6
I0
I5
I4
I8
tp1729
a(I9
I7
I4
I1
I10
I2
I6
I0
I5
I3
I8
tp1730
a(I9
I7
I4
I1
I10
I5
I6
I0
I2
I3
I8
tp1731
a(I9
I7
I5
I1
I3
I10
I6
I0
I2
I4
I8
tp1732
a(I9
I7
I5
I1
I10
I3
I6
I0
I4
I2
I8
tp1733
a(I9
I7
I5
I1
I10
I4
I6
I0
I3
I2
I8
tp1734
a(I9
I7
I5
I1
I10
I6
I2
I0
I3
I4
I8
tp1735
a(I9
I7
I10
I1
I2
I3
I6
I0
I5
I4
I8
tp1736
a(I9
I7
I10
I1
I2
I5
I6
I0
I3
I4
I8
tp1737
a(I9
I8
I0
I1
I2
I7
I6
I10
I4
I3
I5
tp1738
a(I9
I8
I0
I1
I2
I7
I6
I10
I5
I3
I4
tp1739
a(I9
I8
I0
I1
I2
I7
I10
I5
I4
I3
I6
tp1740
a(I9
I8
I5
I1
I2
I7
I6
I10
I0
I4
I3
tp1741
a(I9
I8
I5
I1
I2
I7
I6
I10
I3
I4
I0
tp1742
a(I9
I8
I5
I1
I10
I7
I6
I4
I0
I3
I2
tp1743
a(I9
I8
I5
I1
I10
I7
I6
I4
I2
I3
I0
tp1744
a(I9
I8
I10
I1
I2
I7
I6
I5
I0
I3
I4
tp1745
a(I9
I8
I10
I1
I2
I7
I6
I5
I4
I3
I0
tp1746
a(I9
I10
I0
I1
I2
I4
I6
I7
I5
I3
I8
tp1747
a(I9
I10
I0
I1
I2
I5
I6
I4
I7
I3
I8
tp1748
a(I9
I10
I0
I1
I2
I5
I6
I7
I4
I3
I8
tp1749
a(I9
I10
I0
I1
I2
I6
I7
I5
I4
I3
I8
tp1750
a(I9
I10
I0
I1
I2
I7
I4
I3
I5
I6
I8
tp1751
a(I9
I10
I0
I1
I2
I7
I6
I4
I8
I3
I5
tp1752
a(I9
I10
I0
I1
I2
I7
I6
I8
I4
I3
I5
tp1753
a(I9
I10
I0
I1
I2
I7
I6
I8
I5
I3
I4
tp1754
a(I9
I10
I0
I1
I2
I7
I8
I5
I4
I3
I6
tp1755
a(I9
I10
I0
I1
I4
I7
I2
I6
I5
I3
I8
tp1756
a(I9
I10
I0
I1
I4
I7
I5
I6
I2
I3
I8
tp1757
a(I9
I10
I0
I4
I2
I7
I6
I1
I5
I3
I8
tp1758
a(I9
I10
I0
I5
I2
I7
I6
I1
I4
I3
I8
tp1759
a(I9
I10
I0
I5
I2
I7
I6
I4
I1
I3
I8
tp1760
a(I9
I10
I0
I6
I2
I7
I1
I5
I4
I3
I8
tp1761
a(I9
I10
I1
I0
I2
I7
I6
I5
I4
I3
I8
tp1762
a(I9
I10
I1
I4
I2
I7
I6
I5
I0
I3
I8
tp1763
a(I9
I10
I2
I1
I6
I7
I4
I5
I0
I3
I8
tp1764
a(I9
I10
I3
I1
I2
I7
I0
I6
I5
I4
I8
tp1765
a(I9
I10
I3
I1
I2
I7
I4
I5
I0
I6
I8
tp1766
a(I9
I10
I3
I1
I2
I7
I5
I6
I0
I4
I8
tp1767
a(I9
I10
I4
I0
I2
I7
I6
I5
I1
I3
I8
tp1768
a(I9
I10
I4
I1
I2
I0
I6
I5
I7
I3
I8
tp1769
a(I9
I10
I4
I1
I2
I7
I6
I5
I8
I3
I0
tp1770
a(I9
I10
I5
I0
I2
I7
I6
I1
I3
I4
I8
tp1771
a(I9
I10
I5
I0
I2
I7
I6
I3
I1
I4
I8
tp1772
a(I9
I10
I5
I1
I0
I7
I2
I6
I3
I4
I8
tp1773
a(I9
I10
I5
I1
I2
I0
I6
I3
I7
I4
I8
tp1774
a(I9
I10
I5
I1
I2
I0
I6
I7
I3
I4
I8
tp1775
a(I9
I10
I5
I1
I2
I3
I6
I7
I0
I4
I8
tp1776
a(I9
I10
I5
I1
I2
I7
I6
I3
I8
I4
I0
tp1777
a(I9
I10
I5
I1
I2
I7
I6
I8
I0
I4
I3
tp1778
a(I9
I10
I5
I1
I2
I7
I6
I8
I3
I4
I0
tp1779
a(I9
I10
I5
I1
I3
I7
I0
I6
I2
I4
I8
tp1780
a(I9
I10
I5
I1
I3
I7
I2
I6
I0
I4
I8
tp1781
a(I9
I10
I6
I1
I0
I7
I4
I5
I2
I3
I8
tp1782
a(I9
I10
I6
I1
I2
I7
I4
I5
I3
I0
I8
tp1783
a(I9
I10
I7
I1
I2
I0
I6
I5
I4
I3
I8
tp1784
a(I9
I10
I7
I1
I2
I4
I6
I5
I0
I3
I8
tp1785
a(I10
I1
I0
I4
I2
I7
I6
I9
I5
I3
I8
tp1786
a(I10
I1
I0
I5
I2
I7
I6
I9
I4
I3
I8
tp1787
a(I10
I1
I0
I5
I2
I7
I9
I6
I3
I4
I8
tp1788
a(I10
I1
I0
I6
I2
I7
I5
I4
I9
I3
I8
tp1789
a(I10
I1
I4
I6
I2
I7
I0
I5
I9
I3
I8
tp1790
a(I10
I1
I5
I0
I2
I7
I6
I9
I3
I4
I8
tp1791
a(I10
I1
I5
I2
I0
I7
I6
I4
I9
I3
I8
tp1792
a(I10
I1
I5
I4
I2
I7
I6
I3
I9
I0
I8
tp1793
a(I10
I1
I5
I6
I2
I7
I0
I3
I9
I4
I8
tp1794
a(I10
I1
I5
I7
I2
I3
I6
I0
I9
I4
I8
tp1795
a(I10
I1
I6
I4
I2
I7
I0
I5
I9
I3
I8
tp1796
a(I10
I1
I9
I0
I2
I7
I6
I5
I4
I3
I8
tp1797
a(I10
I1
I9
I4
I2
I7
I6
I5
I0
I3
I8
tp1798
a(I10
I2
I0
I1
I6
I7
I4
I9
I5
I3
I8
tp1799
a(I10
I2
I0
I1
I9
I7
I5
I6
I4
I3
I8
tp1800
a(I10
I2
I4
I1
I0
I7
I5
I6
I9
I3
I8
tp1801
a(I10
I2
I5
I0
I1
I7
I6
I4
I9
I3
I8
tp1802
a(I10
I2
I5
I0
I4
I7
I6
I1
I9
I3
I8
tp1803
a(I10
I2
I5
I1
I0
I4
I6
I7
I9
I3
I8
tp1804
a(I10
I2
I5
I1
I0
I7
I4
I3
I9
I6
I8
tp1805
a(I10
I2
I5
I1
I0
I7
I6
I8
I9
I3
I4
tp1806
a(I10
I2
I5
I1
I3
I7
I6
I0
I8
I4
I9
tp1807
a(I10
I2
I5
I1
I4
I0
I6
I7
I9
I3
I8
tp1808
a(I10
I2
I5
I1
I4
I7
I6
I8
I9
I3
I0
tp1809
a(I10
I2
I5
I1
I6
I7
I4
I3
I9
I0
I8
tp1810
a(I10
I2
I5
I1
I7
I0
I6
I4
I9
I3
I8
tp1811
a(I10
I2
I5
I1
I8
I7
I6
I0
I3
I4
I9
tp1812
a(I10
I2
I5
I1
I8
I7
I6
I4
I9
I3
I0
tp1813
a(I10
I2
I5
I1
I9
I7
I0
I6
I3
I4
I8
tp1814
a(I10
I2
I5
I4
I0
I7
I6
I1
I9
I3
I8
tp1815
a(I10
I2
I6
I1
I9
I7
I4
I5
I0
I3
I8
tp1816
a(I10
I2
I9
I1
I6
I7
I4
I5
I0
I3
I8
tp1817
a(I10
I3
I0
I1
I2
I4
I9
I6
I7
I5
I8
tp1818
a(I10
I3
I0
I1
I2
I7
I9
I6
I4
I8
I5
tp1819
a(I10
I3
I0
I1
I2
I7
I9
I6
I5
I8
I4
tp1820
a(I10
I3
I0
I1
I2
I7
I9
I6
I8
I5
I4
tp1821
a(I10
I3
I0
I4
I2
I7
I9
I6
I1
I5
I8
tp1822
a(I10
I3
I1
I0
I2
I7
I9
I6
I5
I4
I8
tp1823
a(I10
I3
I1
I5
I2
I7
I4
I0
I9
I6
I8
tp1824
a(I10
I3
I1
I5
I2
I7
I9
I6
I0
I4
I8
tp1825
a(I10
I3
I1
I6
I2
I7
I4
I0
I9
I5
I8
tp1826
a(I10
I3
I4
I1
I2
I7
I0
I6
I5
I9
I8
tp1827
a(I10
I3
I4
I1
I2
I7
I5
I6
I0
I9
I8
tp1828
a(I10
I3
I4
I1
I2
I7
I6
I0
I5
I8
I9
tp1829
a(I10
I3
I4
I1
I2
I7
I6
I0
I8
I5
I9
tp1830
a(I10
I3
I5
I0
I1
I7
I9
I6
I2
I4
I8
tp1831
a(I10
I3
I5
I0
I2
I7
I1
I4
I9
I6
I8
tp1832
a(I10
I3
I5
I0
I2
I7
I6
I1
I4
I9
I8
tp1833
a(I10
I3
I5
I0
I2
I7
I6
I4
I1
I9
I8
tp1834
a(I10
I3
I5
I1
I0
I2
I9
I6
I7
I4
I8
tp1835
a(I10
I3
I5
I1
I0
I7
I2
I6
I4
I9
I8
tp1836
a(I10
I3
I5
I1
I0
I7
I4
I9
I2
I6
I8
tp1837
a(I10
I3
I5
I1
I0
I7
I9
I6
I8
I4
I2
tp1838
a(I10
I3
I5
I1
I2
I0
I6
I4
I7
I9
I8
tp1839
a(I10
I3
I5
I1
I2
I0
I6
I7
I4
I9
I8
tp1840
a(I10
I3
I5
I1
I2
I0
I7
I4
I9
I6
I8
tp1841
a(I10
I3
I5
I1
I2
I4
I0
I7
I9
I6
I8
tp1842
a(I10
I3
I5
I1
I2
I4
I6
I0
I9
I8
I7
tp1843
a(I10
I3
I5
I1
I2
I4
I6
I7
I0
I9
I8
tp1844
a(I10
I3
I5
I1
I2
I4
I6
I9
I7
I0
I8
tp1845
a(I10
I3
I5
I1
I2
I6
I0
I9
I7
I4
I8
tp1846
a(I10
I3
I5
I1
I2
I6
I7
I4
I9
I0
I8
tp1847
a(I10
I3
I5
I1
I2
I6
I7
I9
I0
I4
I8
tp1848
a(I10
I3
I5
I1
I2
I6
I8
I0
I9
I4
I7
tp1849
a(I10
I3
I5
I1
I2
I7
I0
I4
I9
I8
I6
tp1850
a(I10
I3
I5
I1
I2
I7
I0
I8
I9
I6
I4
tp1851
a(I10
I3
I5
I1
I2
I7
I0
I9
I8
I4
I6
tp1852
a(I10
I3
I5
I1
I2
I7
I6
I4
I8
I9
I0
tp1853
a(I10
I3
I5
I1
I2
I7
I6
I8
I0
I9
I4
tp1854
a(I10
I3
I5
I1
I2
I7
I6
I8
I4
I9
I0
tp1855
a(I10
I3
I5
I1
I2
I7
I6
I9
I0
I8
I4
tp1856
a(I10
I3
I5
I1
I2
I7
I6
I9
I4
I8
I0
tp1857
a(I10
I3
I5
I1
I2
I7
I6
I9
I8
I0
I4
tp1858
a(I10
I3
I5
I1
I2
I7
I8
I4
I9
I0
I6
tp1859
a(I10
I3
I5
I1
I2
I7
I8
I4
I9
I6
I0
tp1860
a(I10
I3
I5
I1
I2
I7
I8
I9
I0
I4
I6
tp1861
a(I10
I3
I5
I1
I2
I8
I7
I0
I9
I4
I6
tp1862
a(I10
I3
I5
I1
I2
I9
I6
I0
I8
I4
I7
tp1863
a(I10
I3
I5
I1
I2
I9
I6
I4
I7
I0
I8
tp1864
a(I10
I3
I5
I1
I2
I9
I6
I7
I4
I0
I8
tp1865
a(I10
I3
I5
I1
I4
I7
I0
I6
I2
I9
I8
tp1866
a(I10
I3
I5
I1
I4
I7
I2
I6
I0
I9
I8
tp1867
a(I10
I3
I5
I1
I4
I7
I6
I0
I2
I8
I9
tp1868
a(I10
I3
I5
I1
I4
I7
I6
I0
I8
I2
I9
tp1869
a(I10
I3
I5
I1
I6
I7
I2
I0
I8
I4
I9
tp1870
a(I10
I3
I5
I1
I6
I7
I4
I0
I9
I8
I2
tp1871
a(I10
I3
I5
I1
I6
I7
I4
I9
I0
I2
I8
tp1872
a(I10
I3
I5
I1
I6
I7
I4
I9
I2
I0
I8
tp1873
a(I10
I3
I5
I1
I6
I7
I8
I0
I2
I4
I9
tp1874
a(I10
I3
I5
I1
I7
I0
I9
I6
I2
I4
I8
tp1875
a(I10
I3
I5
I1
I7
I2
I4
I0
I9
I6
I8
tp1876
a(I10
I3
I5
I1
I7
I2
I9
I6
I0
I4
I8
tp1877
a(I10
I3
I5
I1
I7
I6
I4
I0
I9
I2
I8
tp1878
a(I10
I3
I5
I1
I8
I7
I4
I0
I9
I2
I6
tp1879
a(I10
I3
I5
I1
I8
I7
I4
I0
I9
I6
I2
tp1880
a(I10
I3
I5
I1
I8
I7
I6
I0
I4
I2
I9
tp1881
a(I10
I3
I5
I1
I8
I7
I9
I6
I0
I4
I2
tp1882
a(I10
I3
I5
I1
I8
I7
I9
I6
I2
I4
I0
tp1883
a(I10
I3
I5
I1
I9
I7
I0
I6
I4
I2
I8
tp1884
a(I10
I3
I5
I1
I9
I7
I2
I6
I4
I0
I8
tp1885
a(I10
I3
I5
I2
I0
I7
I9
I6
I1
I4
I8
tp1886
a(I10
I3
I5
I2
I1
I7
I4
I0
I9
I6
I8
tp1887
a(I10
I3
I5
I2
I1
I7
I9
I6
I0
I4
I8
tp1888
a(I10
I3
I5
I4
I2
I7
I0
I1
I9
I6
I8
tp1889
a(I10
I3
I5
I4
I2
I7
I6
I0
I9
I8
I1
tp1890
a(I10
I3
I5
I4
I2
I7
I6
I1
I0
I9
I8
tp1891
a(I10
I3
I5
I4
I2
I7
I6
I9
I1
I0
I8
tp1892
a(I10
I3
I5
I6
I1
I7
I4
I0
I9
I2
I8
tp1893
a(I10
I3
I5
I6
I2
I7
I0
I9
I1
I4
I8
tp1894
a(I10
I3
I5
I6
I2
I7
I1
I4
I9
I0
I8
tp1895
a(I10
I3
I5
I6
I2
I7
I1
I9
I0
I4
I8
tp1896
a(I10
I3
I5
I6
I2
I7
I8
I0
I9
I4
I1
tp1897
a(I10
I3
I5
I7
I2
I6
I1
I0
I9
I4
I8
tp1898
a(I10
I3
I5
I7
I2
I9
I6
I0
I1
I4
I8
tp1899
a(I10
I3
I6
I1
I2
I7
I4
I0
I9
I8
I5
tp1900
a(I10
I3
I6
I1
I2
I7
I4
I9
I0
I5
I8
tp1901
a(I10
I3
I6
I1
I2
I7
I4
I9
I5
I0
I8
tp1902
a(I10
I3
I6
I1
I2
I7
I5
I0
I8
I4
I9
tp1903
a(I10
I3
I6
I1
I2
I7
I8
I0
I5
I4
I9
tp1904
a(I10
I3
I7
I1
I2
I0
I9
I6
I5
I4
I8
tp1905
a(I10
I3
I7
I1
I2
I5
I4
I0
I9
I6
I8
tp1906
a(I10
I3
I7
I1
I2
I5
I9
I6
I0
I4
I8
tp1907
a(I10
I3
I7
I1
I2
I6
I4
I0
I9
I5
I8
tp1908
a(I10
I3
I9
I1
I2
I7
I0
I6
I4
I5
I8
tp1909
a(I10
I3
I9
I1
I2
I7
I5
I6
I4
I0
I8
tp1910
a(I10
I4
I0
I1
I2
I3
I7
I6
I9
I5
I8
tp1911
a(I10
I4
I0
I1
I2
I5
I6
I8
I9
I3
I7
tp1912
a(I10
I4
I0
I1
I2
I6
I8
I5
I9
I3
I7
tp1913
a(I10
I4
I0
I1
I2
I7
I5
I6
I9
I8
I3
tp1914
a(I10
I4
I0
I1
I2
I7
I6
I3
I5
I8
I9
tp1915
a(I10
I4
I0
I1
I2
I7
I6
I3
I8
I5
I9
tp1916
a(I10
I4
I0
I1
I2
I7
I6
I8
I3
I5
I9
tp1917
a(I10
I4
I0
I1
I2
I7
I8
I5
I3
I6
I9
tp1918
a(I10
I4
I0
I1
I2
I7
I8
I6
I9
I5
I3
tp1919
a(I10
I4
I0
I1
I2
I8
I6
I7
I9
I3
I5
tp1920
a(I10
I4
I0
I1
I2
I8
I7
I5
I9
I3
I6
tp1921
a(I10
I4
I0
I1
I2
I9
I6
I5
I8
I3
I7
tp1922
a(I10
I4
I0
I1
I6
I7
I2
I5
I8
I3
I9
tp1923
a(I10
I4
I0
I1
I6
I7
I8
I5
I2
I3
I9
tp1924
a(I10
I4
I0
I1
I7
I2
I5
I6
I9
I3
I8
tp1925
a(I10
I4
I0
I1
I7
I5
I2
I6
I9
I3
I8
tp1926
a(I10
I4
I0
I1
I8
I7
I2
I6
I9
I3
I5
tp1927
a(I10
I4
I0
I1
I8
I7
I5
I6
I9
I3
I2
tp1928
a(I10
I4
I0
I2
I1
I7
I5
I6
I9
I3
I8
tp1929
a(I10
I4
I0
I5
I1
I7
I2
I6
I9
I3
I8
tp1930
a(I10
I4
I0
I5
I2
I7
I6
I8
I9
I3
I1
tp1931
a(I10
I4
I0
I6
I2
I7
I8
I5
I9
I3
I1
tp1932
a(I10
I4
I0
I7
I2
I5
I6
I1
I9
I3
I8
tp1933
a(I10
I4
I0
I7
I2
I6
I1
I5
I9
I3
I8
tp1934
a(I10
I4
I0
I7
I2
I9
I6
I5
I1
I3
I8
tp1935
a(I10
I4
I1
I7
I2
I0
I6
I5
I9
I3
I8
tp1936
a(I10
I4
I2
I1
I0
I7
I6
I5
I8
I3
I9
tp1937
a(I10
I4
I2
I1
I8
I7
I6
I5
I0
I3
I9
tp1938
a(I10
I4
I3
I1
I2
I7
I6
I5
I0
I8
I9
tp1939
a(I10
I4
I3
I1
I2
I7
I6
I5
I8
I0
I9
tp1940
a(I10
I4
I7
I1
I2
I8
I6
I5
I9
I3
I0
tp1941
a(I10
I5
I0
I1
I2
I3
I9
I6
I7
I4
I8
tp1942
a(I10
I5
I0
I1
I2
I4
I6
I9
I7
I3
I8
tp1943
a(I10
I5
I0
I1
I2
I6
I7
I4
I9
I3
I8
tp1944
a(I10
I5
I0
I1
I2
I7
I4
I9
I3
I6
I8
tp1945
a(I10
I5
I0
I1
I2
I7
I6
I9
I8
I3
I4
tp1946
a(I10
I5
I0
I1
I2
I7
I8
I4
I9
I3
I6
tp1947
a(I10
I5
I0
I1
I2
I7
I9
I6
I8
I4
I3
tp1948
a(I10
I5
I0
I1
I2
I9
I6
I4
I7
I3
I8
tp1949
a(I10
I5
I0
I1
I2
I9
I6
I7
I4
I3
I8
tp1950
a(I10
I5
I0
I1
I6
I7
I4
I9
I2
I3
I8
tp1951
a(I10
I5
I0
I1
I9
I7
I2
I6
I4
I3
I8
tp1952
a(I10
I5
I0
I4
I2
I7
I6
I9
I1
I3
I8
tp1953
a(I10
I5
I0
I6
I2
I7
I1
I4
I9
I3
I8
tp1954
a(I10
I5
I1
I0
I2
I7
I6
I4
I9
I3
I8
tp1955
a(I10
I5
I2
I1
I4
I7
I0
I6
I9
I3
I8
tp1956
a(I10
I5
I3
I1
I2
I7
I6
I0
I8
I4
I9
tp1957
a(I10
I5
I4
I0
I2
I7
I6
I1
I9
I3
I8
tp1958
a(I10
I5
I4
I1
I0
I7
I2
I6
I9
I3
I8
tp1959
a(I10
I5
I4
I1
I2
I0
I6
I7
I9
I3
I8
tp1960
a(I10
I5
I4
I1
I2
I7
I6
I8
I9
I3
I0
tp1961
a(I10
I5
I6
I1
I2
I7
I4
I3
I9
I0
I8
tp1962
a(I10
I5
I7
I1
I2
I0
I6
I4
I9
I3
I8
tp1963
a(I10
I5
I9
I1
I2
I7
I0
I6
I3
I4
I8
tp1964
a(I10
I6
I0
I1
I2
I4
I5
I7
I9
I3
I8
tp1965
a(I10
I6
I0
I1
I2
I5
I7
I4
I9
I3
I8
tp1966
a(I10
I6
I0
I1
I2
I7
I4
I3
I5
I9
I8
tp1967
a(I10
I6
I0
I1
I2
I7
I4
I9
I3
I5
I8
tp1968
a(I10
I6
I0
I1
I2
I7
I5
I8
I9
I3
I4
tp1969
a(I10
I6
I0
I1
I2
I7
I8
I4
I9
I3
I5
tp1970
a(I10
I6
I0
I1
I2
I9
I7
I5
I4
I3
I8
tp1971
a(I10
I6
I0
I4
I2
I7
I5
I1
I9
I3
I8
tp1972
a(I10
I6
I0
I5
I2
I7
I1
I4
I9
I3
I8
tp1973
a(I10
I6
I1
I4
I2
I7
I0
I5
I9
I3
I8
tp1974
a(I10
I6
I2
I1
I9
I7
I4
I5
I0
I3
I8
tp1975
a(I10
I6
I3
I1
I2
I7
I4
I5
I0
I9
I8
tp1976
a(I10
I6
I4
I0
I2
I7
I1
I5
I9
I3
I8
tp1977
a(I10
I6
I4
I1
I2
I0
I7
I5
I9
I3
I8
tp1978
a(I10
I6
I4
I1
I2
I7
I8
I5
I9
I3
I0
tp1979
a(I10
I6
I5
I0
I2
I7
I1
I3
I9
I4
I8
tp1980
a(I10
I6
I5
I1
I0
I7
I4
I3
I9
I2
I8
tp1981
a(I10
I6
I5
I1
I2
I0
I7
I3
I9
I4
I8
tp1982
a(I10
I6
I5
I1
I2
I3
I0
I7
I9
I4
I8
tp1983
a(I10
I6
I5
I1
I2
I7
I0
I8
I9
I4
I3
tp1984
a(I10
I6
I5
I1
I2
I7
I8
I3
I9
I4
I0
tp1985
a(I10
I6
I7
I1
I2
I4
I0
I5
I9
I3
I8
tp1986
a(I10
I6
I9
I1
I0
I7
I4
I5
I2
I3
I8
tp1987
a(I10
I6
I9
I1
I2
I7
I4
I5
I3
I0
I8
tp1988
a(I10
I7
I0
I1
I2
I3
I9
I5
I4
I6
I8
tp1989
a(I10
I7
I0
I1
I2
I4
I9
I5
I3
I6
I8
tp1990
a(I10
I7
I0
I1
I2
I6
I9
I3
I5
I4
I8
tp1991
a(I10
I7
I0
I1
I4
I6
I9
I5
I2
I3
I8
tp1992
a(I10
I7
I0
I1
I6
I2
I9
I5
I4
I3
I8
tp1993
a(I10
I7
I0
I1
I6
I4
I9
I5
I2
I3
I8
tp1994
a(I10
I7
I2
I1
I4
I5
I6
I0
I9
I3
I8
tp1995
a(I10
I7
I3
I1
I2
I4
I6
I0
I9
I5
I8
tp1996
a(I10
I7
I3
I1
I2
I6
I5
I0
I9
I4
I8
tp1997
a(I10
I7
I3
I1
I2
I6
I9
I5
I0
I4
I8
tp1998
a(I10
I7
I3
I1
I2
I9
I6
I0
I5
I4
I8
tp1999
a(I10
I7
I4
I1
I2
I3
I6
I0
I9
I5
I8
tp2000
a(I10
I7
I5
I1
I3
I4
I6
I0
I9
I2
I8
tp2001
a(I10
I7
I5
I1
I3
I6
I2
I0
I9
I4
I8
tp2002
a(I10
I7
I5
I1
I3
I9
I6
I0
I2
I4
I8
tp2003
a(I10
I7
I5
I1
I4
I3
I6
I0
I9
I2
I8
tp2004
a(I10
I7
I5
I1
I6
I3
I2
I0
I9
I4
I8
tp2005
a(I10
I7
I5
I1
I9
I2
I6
I0
I3
I4
I8
tp2006
a(I10
I7
I5
I1
I9
I3
I6
I0
I2
I4
I8
tp2007
a(I10
I7
I6
I1
I2
I0
I9
I5
I3
I4
I8
tp2008
a(I10
I7
I6
I1
I2
I3
I5
I0
I9
I4
I8
tp2009
a(I10
I7
I6
I1
I2
I3
I9
I5
I0
I4
I8
tp2010
a(I10
I7
I9
I1
I2
I3
I6
I0
I5
I4
I8
tp2011
a(I10
I7
I9
I1
I2
I5
I6
I0
I3
I4
I8
tp2012
a(I10
I8
I0
I1
I2
I7
I5
I4
I9
I3
I6
tp2013
a(I10
I8
I0
I1
I2
I7
I6
I9
I4
I3
I5
tp2014
a(I10
I8
I0
I1
I2
I7
I6
I9
I5
I3
I4
tp2015
a(I10
I8
I0
I1
I2
I7
I9
I6
I3
I4
I5
tp2016
a(I10
I8
I0
I1
I2
I7
I9
I6
I5
I4
I3
tp2017
a(I10
I8
I3
I1
I2
I7
I6
I0
I5
I4
I9
tp2018
a(I10
I8
I4
I1
I2
I7
I0
I5
I9
I3
I6
tp2019
a(I10
I8
I5
I1
I0
I7
I6
I4
I9
I3
I2
tp2020
a(I10
I8
I5
I1
I2
I3
I6
I0
I9
I4
I7
tp2021
a(I10
I8
I5
I1
I2
I7
I0
I3
I9
I4
I6
tp2022
a(I10
I8
I5
I1
I2
I7
I6
I3
I9
I0
I4
tp2023
a(I10
I8
I5
I1
I2
I7
I6
I4
I9
I0
I3
tp2024
a(I10
I8
I5
I1
I2
I7
I6
I9
I0
I4
I3
tp2025
a(I10
I8
I5
I1
I2
I7
I6
I9
I3
I4
I0
tp2026
a(I10
I8
I5
I1
I3
I7
I6
I0
I2
I4
I9
tp2027
a(I10
I8
I6
I1
I2
I7
I0
I5
I9
I3
I4
tp2028
a(I10
I8
I9
I1
I2
I7
I6
I5
I0
I3
I4
tp2029
a(I10
I8
I9
I1
I2
I7
I6
I5
I4
I3
I0
tp2030
a(I10
I9
I0
I1
I2
I4
I6
I7
I5
I3
I8
tp2031
a(I10
I9
I0
I1
I2
I5
I6
I4
I7
I3
I8
tp2032
a(I10
I9
I0
I1
I2
I5
I6
I7
I4
I3
I8
tp2033
a(I10
I9
I0
I1
I2
I6
I7
I5
I4
I3
I8
tp2034
a(I10
I9
I0
I1
I2
I7
I4
I3
I5
I6
I8
tp2035
a(I10
I9
I0
I1
I2
I7
I6
I4
I8
I3
I5
tp2036
a(I10
I9
I0
I1
I2
I7
I6
I8
I4
I3
I5
tp2037
a(I10
I9
I0
I1
I2
I7
I6
I8
I5
I3
I4
tp2038
a(I10
I9
I0
I1
I2
I7
I8
I5
I4
I3
I6
tp2039
a(I10
I9
I0
I1
I4
I7
I2
I6
I5
I3
I8
tp2040
a(I10
I9
I0
I1
I4
I7
I5
I6
I2
I3
I8
tp2041
a(I10
I9
I0
I4
I2
I7
I6
I1
I5
I3
I8
tp2042
a(I10
I9
I0
I5
I2
I7
I6
I1
I4
I3
I8
tp2043
a(I10
I9
I0
I5
I2
I7
I6
I4
I1
I3
I8
tp2044
a(I10
I9
I0
I6
I2
I7
I1
I5
I4
I3
I8
tp2045
a(I10
I9
I1
I0
I2
I7
I6
I5
I4
I3
I8
tp2046
a(I10
I9
I1
I4
I2
I7
I6
I5
I0
I3
I8
tp2047
a(I10
I9
I2
I1
I6
I7
I4
I5
I0
I3
I8
tp2048
a(I10
I9
I3
I1
I2
I7
I0
I6
I5
I4
I8
tp2049
a(I10
I9
I3
I1
I2
I7
I4
I5
I0
I6
I8
tp2050
a(I10
I9
I3
I1
I2
I7
I5
I6
I0
I4
I8
tp2051
a(I10
I9
I4
I0
I2
I7
I6
I5
I1
I3
I8
tp2052
a(I10
I9
I4
I1
I2
I0
I6
I5
I7
I3
I8
tp2053
a(I10
I9
I4
I1
I2
I7
I6
I5
I8
I3
I0
tp2054
a(I10
I9
I5
I0
I2
I7
I6
I1
I3
I4
I8
tp2055
a(I10
I9
I5
I0
I2
I7
I6
I3
I1
I4
I8
tp2056
a(I10
I9
I5
I1
I0
I7
I2
I6
I3
I4
I8
tp2057
a(I10
I9
I5
I1
I2
I0
I6
I3
I7
I4
I8
tp2058
a(I10
I9
I5
I1
I2
I0
I6
I7
I3
I4
I8
tp2059
a(I10
I9
I5
I1
I2
I3
I6
I7
I0
I4
I8
tp2060
a(I10
I9
I5
I1
I2
I7
I6
I3
I8
I4
I0
tp2061
a(I10
I9
I5
I1
I2
I7
I6
I8
I0
I4
I3
tp2062
a(I10
I9
I5
I1
I2
I7
I6
I8
I3
I4
I0
tp2063
a(I10
I9
I5
I1
I3
I7
I0
I6
I2
I4
I8
tp2064
a(I10
I9
I5
I1
I3
I7
I2
I6
I0
I4
I8
tp2065
a(I10
I9
I6
I1
I0
I7
I4
I5
I2
I3
I8
tp2066
a(I10
I9
I6
I1
I2
I7
I4
I5
I3
I0
I8
tp2067
a(I10
I9
I7
I1
I2
I0
I6
I5
I4
I3
I8
tp2068
a(I10
I9
I7
I1
I2
I4
I6
I5
I0
I3
I8
tp2069
asS'resume'
p2070
I3
s.