(dp0
S'remaining_guesses'
p1
(lp2
(I1
I2
I5
I0
I4
I7
I6
I10
I9
I3
I8
tp3
a(I1
I2
I5
I0
I10
I7
I6
I9
I4
I3
I8
tp4
a(I1
I2
I5
I4
I0
I7
I6
I10
I9
I3
I8
tp5
a(I1
I2
I5
I4
I10
I7
I6
I9
I0
I3
I8
tp6
a(I1
I2
I5
I7
I10
I4
I6
I0
I9
I3
I8
tp7
a(I1
I2
I5
I10
I0
I7
I6
I4
I9
I3
I8
tp8
a(I1
I3
I5
I0
I2
I7
I10
I4
I9
I6
I8
tp9
a(I1
I3
I5
I2
I6
I7
I4
I0
I9
I10
I8
tp10
a(I1
I3
I5
I4
I2
I7
I0
I10
I9
I6
I8
tp11
a(I1
I3
I5
I6
I2
I7
I0
I4
I9
I10
I8
tp12
a(I1
I3
I5
I6
I2
I7
I10
I4
I9
I0
I8
tp13
a(I1
I3
I5
I6
I10
I7
I4
I0
I2
I9
I8
tp14
a(I1
I3
I5
I8
I10
I7
I9
I0
I2
I4
I6
tp15
a(I1
I3
I5
I10
I0
I7
I9
I6
I2
I4
I8
tp16
a(I1
I3
I5
I10
I2
I7
I0
I4
I9
I6
I8
tp17
a(I1
I3
I5
I10
I6
I7
I4
I0
I9
I2
I8
tp18
a(I1
I4
I5
I8
I10
I7
I6
I0
I9
I2
I3
tp19
a(I1
I8
I5
I2
I10
I7
I6
I0
I9
I3
I4
tp20
a(I1
I8
I5
I4
I10
I7
I6
I0
I9
I3
I2
tp21
a(I1
I9
I5
I0
I10
I7
I6
I4
I2
I3
I8
tp22
a(I1
I9
I5
I2
I10
I7
I6
I4
I0
I3
I8
tp23
a(I2
I1
I5
I0
I9
I7
I6
I10
I4
I3
I8
tp24
a(I2
I1
I5
I4
I7
I10
I6
I0
I9
I3
I8
tp25
a(I2
I1
I5
I4
I9
I7
I6
I10
I0
I3
I8
tp26
a(I2
I1
I5
I4
I10
I7
I9
I6
I3
I0
I8
tp27
a(I2
I1
I5
I4
I10
I9
I6
I0
I7
I3
I8
tp28
a(I2
I1
I5
I6
I3
I7
I4
I0
I9
I10
I8
tp29
a(I2
I1
I5
I7
I4
I10
I6
I0
I9
I3
I8
tp30
a(I2
I1
I5
I7
I10
I9
I6
I0
I4
I3
I8
tp31
a(I2
I1
I5
I10
I0
I7
I6
I9
I4
I3
I8
tp32
a(I2
I1
I5
I10
I3
I7
I4
I0
I9
I6
I8
tp33
a(I2
I1
I5
I10
I3
I7
I9
I6
I0
I4
I8
tp34
a(I2
I1
I5
I10
I4
I7
I6
I9
I0
I3
I8
tp35
a(I2
I1
I5
I10
I7
I4
I6
I0
I9
I3
I8
tp36
a(I2
I1
I5
I10
I8
I7
I6
I0
I9
I3
I4
tp37
a(I2
I1
I5
I10
I9
I7
I6
I4
I0
I3
I8
tp38
a(I2
I3
I5
I1
I4
I7
I10
I0
I8
I6
I9
tp39
a(I2
I3
I5
I1
I6
I7
I8
I0
I4
I10
I9
tp40
a(I2
I3
I5
I1
I6
I7
I10
I0
I4
I8
I9
tp41
a(I2
I3
I5
I1
I6
I9
I4
I0
I7
I10
I8
tp42
a(I2
I3
I5
I1
I6
I10
I4
I0
I7
I9
I8
tp43
a(I2
I3
I5
I1
I8
I7
I10
I0
I4
I6
I9
tp44
a(I2
I3
I5
I1
I9
I6
I4
I0
I7
I10
I8
tp45
a(I2
I3
I5
I1
I9
I7
I4
I0
I8
I10
I6
tp46
a(I2
I3
I5
I1
I9
I10
I4
I0
I7
I6
I8
tp47
a(I2
I3
I5
I6
I9
I7
I4
I0
I1
I10
I8
tp48
a(I2
I3
I5
I10
I6
I7
I4
I0
I1
I9
I8
tp49
a(I2
I3
I5
I10
I9
I7
I4
I0
I1
I6
I8
tp50
a(I2
I4
I5
I0
I10
I7
I1
I6
I3
I9
I8
tp51
a(I2
I4
I5
I1
I0
I7
I6
I3
I8
I10
I9
tp52
a(I2
I4
I5
I1
I3
I7
I6
I8
I0
I10
I9
tp53
a(I2
I4
I5
I1
I3
I7
I6
I10
I0
I8
I9
tp54
a(I2
I4
I5
I1
I3
I7
I6
I10
I8
I0
I9
tp55
a(I2
I4
I5
I1
I8
I7
I6
I3
I0
I10
I9
tp56
a(I2
I4
I5
I1
I10
I0
I7
I6
I3
I9
I8
tp57
a(I2
I4
I5
I1
I10
I3
I6
I0
I7
I8
I9
tp58
a(I2
I4
I5
I1
I10
I7
I0
I8
I3
I6
I9
tp59
a(I2
I4
I5
I1
I10
I7
I8
I6
I3
I9
I0
tp60
a(I2
I4
I5
I1
I10
I9
I7
I6
I3
I0
I8
tp61
a(I2
I4
I5
I8
I1
I7
I6
I0
I9
I10
I3
tp62
a(I2
I4
I5
I8
I3
I7
I6
I0
I9
I10
I1
tp63
a(I2
I4
I5
I8
I10
I7
I6
I0
I1
I9
I3
tp64
a(I2
I6
I5
I1
I3
I7
I4
I9
I0
I10
I8
tp65
a(I2
I6
I5
I1
I3
I7
I4
I10
I0
I9
I8
tp66
a(I2
I6
I5
I1
I7
I3
I4
I0
I9
I10
I8
tp67
a(I2
I6
I5
I1
I8
I7
I4
I0
I9
I10
I3
tp68
a(I2
I6
I5
I1
I9
I7
I4
I3
I0
I10
I8
tp69
a(I2
I6
I5
I1
I10
I3
I4
I0
I7
I9
I8
tp70
a(I2
I6
I5
I1
I10
I7
I4
I0
I8
I9
I3
tp71
a(I2
I6
I5
I8
I10
I7
I9
I0
I1
I4
I3
tp72
a(I2
I7
I5
I1
I3
I4
I10
I0
I9
I6
I8
tp73
a(I2
I7
I5
I1
I3
I6
I9
I10
I0
I4
I8
tp74
a(I2
I7
I5
I1
I4
I3
I10
I0
I9
I6
I8
tp75
a(I2
I7
I5
I1
I6
I3
I9
I10
I0
I4
I8
tp76
a(I2
I7
I5
I1
I6
I10
I9
I3
I0
I4
I8
tp77
a(I2
I7
I5
I1
I10
I0
I9
I4
I3
I6
I8
tp78
a(I2
I7
I5
I1
I10
I3
I9
I0
I8
I4
I6
tp79
a(I2
I7
I5
I1
I10
I6
I9
I0
I8
I4
I3
tp80
a(I2
I7
I5
I1
I10
I6
I9
I4
I3
I0
I8
tp81
a(I2
I7
I5
I6
I10
I3
I9
I0
I1
I4
I8
tp82
a(I2
I8
I5
I1
I3
I7
I4
I0
I9
I10
I6
tp83
a(I2
I8
I5
I1
I4
I10
I6
I0
I9
I3
I7
tp84
a(I2
I8
I5
I1
I6
I7
I4
I0
I9
I10
I3
tp85
a(I2
I8
I5
I1
I7
I10
I6
I0
I9
I3
I4
tp86
a(I2
I8
I5
I1
I9
I7
I6
I10
I0
I3
I4
tp87
a(I2
I8
I5
I1
I9
I7
I6
I10
I4
I3
I0
tp88
a(I2
I8
I5
I1
I10
I7
I9
I6
I3
I0
I4
tp89
a(I2
I8
I5
I1
I10
I9
I6
I0
I4
I3
I7
tp90
a(I2
I8
I5
I1
I10
I9
I6
I0
I7
I3
I4
tp91
a(I2
I8
I5
I10
I1
I7
I6
I0
I9
I3
I4
tp92
a(I2
I8
I5
I10
I4
I7
I6
I0
I9
I3
I1
tp93
a(I2
I9
I5
I0
I1
I7
I6
I10
I4
I3
I8
tp94
a(I2
I9
I5
I0
I4
I7
I6
I10
I1
I3
I8
tp95
a(I2
I9
I5
I1
I0
I4
I6
I10
I7
I3
I8
tp96
a(I2
I9
I5
I1
I0
I7
I6
I10
I8
I3
I4
tp97
a(I2
I9
I5
I1
I0
I10
I6
I4
I7
I3
I8
tp98
a(I2
I9
I5
I1
I0
I10
I6
I7
I4
I3
I8
tp99
a(I2
I9
I5
I1
I3
I7
I0
I6
I4
I10
I8
tp100
a(I2
I9
I5
I1
I3
I7
I4
I10
I0
I6
I8
tp101
a(I2
I9
I5
I1
I3
I7
I10
I6
I4
I0
I8
tp102
a(I2
I9
I5
I1
I4
I0
I6
I10
I7
I3
I8
tp103
a(I2
I9
I5
I1
I4
I7
I6
I10
I8
I3
I0
tp104
a(I2
I9
I5
I1
I4
I10
I6
I7
I0
I3
I8
tp105
a(I2
I9
I5
I1
I6
I7
I4
I3
I0
I10
I8
tp106
a(I2
I9
I5
I1
I7
I0
I6
I10
I4
I3
I8
tp107
a(I2
I9
I5
I1
I7
I4
I6
I10
I0
I3
I8
tp108
a(I2
I9
I5
I1
I7
I10
I6
I4
I0
I3
I8
tp109
a(I2
I9
I5
I1
I8
I7
I6
I10
I0
I3
I4
tp110
a(I2
I9
I5
I1
I8
I7
I6
I10
I4
I3
I0
tp111
a(I2
I9
I5
I1
I10
I3
I4
I0
I7
I6
I8
tp112
a(I2
I9
I5
I1
I10
I4
I6
I0
I8
I3
I7
tp113
a(I2
I9
I5
I1
I10
I7
I4
I0
I8
I6
I3
tp114
a(I2
I9
I5
I1
I10
I8
I6
I0
I4
I3
I7
tp115
a(I2
I9
I5
I1
I10
I8
I6
I0
I7
I3
I4
tp116
a(I2
I9
I5
I4
I0
I7
I6
I10
I1
I3
I8
tp117
a(I2
I9
I5
I4
I1
I7
I6
I10
I0
I3
I8
tp118
a(I2
I9
I5
I4
I10
I7
I6
I0
I8
I3
I1
tp119
a(I2
I9
I5
I7
I10
I4
I6
I0
I1
I3
I8
tp120
a(I2
I9
I5
I10
I0
I7
I6
I1
I4
I3
I8
tp121
a(I2
I9
I5
I10
I0
I7
I6
I4
I1
I3
I8
tp122
a(I2
I9
I5
I10
I1
I7
I6
I4
I0
I3
I8
tp123
a(I2
I9
I5
I10
I4
I7
I6
I1
I0
I3
I8
tp124
a(I2
I10
I5
I0
I6
I7
I1
I4
I9
I3
I8
tp125
a(I2
I10
I5
I1
I0
I6
I7
I4
I9
I3
I8
tp126
a(I2
I10
I5
I1
I0
I7
I8
I4
I9
I3
I6
tp127
a(I2
I10
I5
I1
I4
I6
I0
I7
I9
I3
I8
tp128
a(I2
I10
I5
I1
I4
I7
I0
I8
I9
I3
I6
tp129
a(I2
I10
I5
I1
I6
I0
I7
I4
I9
I3
I8
tp130
a(I2
I10
I5
I1
I6
I4
I0
I7
I9
I3
I8
tp131
a(I2
I10
I5
I1
I6
I7
I0
I8
I9
I3
I4
tp132
a(I2
I10
I5
I1
I6
I7
I8
I4
I9
I3
I0
tp133
a(I2
I10
I5
I1
I7
I6
I0
I4
I9
I3
I8
tp134
a(I2
I10
I5
I1
I8
I7
I0
I4
I9
I3
I6
tp135
a(I2
I10
I5
I4
I6
I7
I0
I1
I9
I3
I8
tp136
a(I2
I10
I5
I6
I0
I7
I1
I4
I9
I3
I8
tp137
a(I2
I10
I5
I6
I1
I7
I0
I4
I9
I3
I8
tp138
a(I2
I10
I5
I6
I4
I7
I0
I1
I9
I3
I8
tp139
a(I3
I1
I5
I0
I10
I7
I9
I6
I2
I4
I8
tp140
a(I3
I1
I5
I2
I10
I7
I4
I0
I9
I6
I8
tp141
a(I3
I1
I5
I2
I10
I7
I9
I6
I0
I4
I8
tp142
a(I3
I1
I5
I6
I10
I7
I4
I0
I9
I2
I8
tp143
a(I3
I2
I5
I0
I10
I7
I9
I6
I1
I4
I8
tp144
a(I3
I2
I5
I1
I0
I7
I4
I10
I9
I6
I8
tp145
a(I3
I2
I5
I1
I4
I7
I0
I6
I9
I10
I8
tp146
a(I3
I2
I5
I1
I4
I7
I10
I6
I9
I0
I8
tp147
a(I3
I2
I5
I1
I6
I7
I4
I10
I9
I0
I8
tp148
a(I3
I2
I5
I1
I10
I0
I9
I6
I7
I4
I8
tp149
a(I3
I2
I5
I1
I10
I7
I0
I6
I4
I9
I8
tp150
a(I3
I2
I5
I1
I10
I7
I4
I0
I9
I8
I6
tp151
a(I3
I2
I5
I1
I10
I7
I4
I9
I0
I6
I8
tp152
a(I3
I2
I5
I1
I10
I7
I9
I6
I8
I4
I0
tp153
a(I3
I4
I5
I1
I10
I7
I6
I8
I0
I2
I9
tp154
a(I3
I4
I5
I1
I10
I7
I6
I8
I2
I0
I9
tp155
a(I3
I4
I5
I8
I10
I7
I6
I0
I9
I2
I1
tp156
a(I3
I6
I5
I1
I0
I7
I4
I10
I9
I2
I8
tp157
a(I3
I6
I5
I1
I10
I7
I4
I0
I9
I8
I2
tp158
a(I3
I6
I5
I1
I10
I7
I4
I9
I0
I2
I8
tp159
a(I3
I6
I5
I1
I10
I7
I4
I9
I2
I0
I8
tp160
a(I3
I7
I5
I1
I10
I4
I2
I0
I9
I6
I8
tp161
a(I3
I8
I5
I1
I10
I7
I4
I0
I9
I2
I6
tp162
a(I3
I8
I5
I1
I10
I7
I4
I0
I9
I6
I2
tp163
a(I3
I8
I5
I1
I10
I7
I9
I6
I0
I4
I2
tp164
a(I3
I8
I5
I1
I10
I7
I9
I6
I2
I4
I0
tp165
a(I3
I9
I5
I1
I10
I7
I0
I6
I4
I2
I8
tp166
a(I3
I9
I5
I1
I10
I7
I2
I6
I4
I0
I8
tp167
a(I6
I1
I5
I8
I10
I7
I2
I0
I9
I4
I3
tp168
a(I6
I2
I5
I1
I10
I7
I0
I3
I8
I4
I9
tp169
a(I6
I2
I5
I1
I10
I7
I8
I3
I0
I4
I9
tp170
a(I6
I2
I5
I8
I10
I7
I1
I0
I9
I4
I3
tp171
a(I6
I3
I5
I0
I2
I7
I8
I10
I9
I4
I1
tp172
a(I6
I3
I5
I0
I2
I7
I10
I8
I9
I4
I1
tp173
a(I6
I3
I5
I0
I2
I10
I1
I7
I9
I4
I8
tp174
a(I6
I3
I5
I0
I2
I10
I7
I1
I9
I4
I8
tp175
a(I6
I3
I5
I1
I0
I7
I2
I10
I8
I4
I9
tp176
a(I6
I3
I5
I1
I0
I7
I8
I10
I2
I4
I9
tp177
a(I6
I3
I5
I1
I0
I7
I10
I8
I2
I4
I9
tp178
a(I6
I3
I5
I1
I2
I0
I8
I10
I9
I4
I7
tp179
a(I6
I3
I5
I1
I2
I0
I10
I8
I9
I4
I7
tp180
a(I6
I3
I5
I1
I2
I8
I0
I10
I9
I4
I7
tp181
a(I6
I3
I5
I1
I2
I8
I7
I10
I9
I4
I0
tp182
a(I6
I3
I5
I1
I2
I8
I10
I7
I9
I4
I0
tp183
a(I6
I3
I5
I1
I2
I10
I0
I8
I9
I4
I7
tp184
a(I6
I3
I5
I1
I2
I10
I7
I8
I9
I4
I0
tp185
a(I6
I3
I5
I1
I2
I10
I8
I7
I9
I4
I0
tp186
a(I6
I3
I5
I1
I8
I7
I0
I10
I2
I4
I9
tp187
a(I6
I3
I5
I1
I8
I7
I2
I10
I0
I4
I9
tp188
a(I6
I3
I5
I1
I10
I2
I7
I0
I8
I4
I9
tp189
a(I6
I3
I5
I1
I10
I2
I8
I0
I7
I4
I9
tp190
a(I6
I3
I5
I1
I10
I8
I2
I0
I7
I4
I9
tp191
a(I6
I3
I5
I1
I10
I8
I7
I0
I2
I4
I9
tp192
a(I6
I3
I5
I2
I10
I7
I1
I0
I8
I4
I9
tp193
a(I6
I3
I5
I2
I10
I7
I8
I0
I1
I4
I9
tp194
a(I6
I3
I5
I7
I2
I0
I1
I10
I9
I4
I8
tp195
a(I6
I3
I5
I7
I2
I0
I10
I1
I9
I4
I8
tp196
a(I6
I3
I5
I7
I2
I10
I0
I1
I9
I4
I8
tp197
a(I6
I3
I5
I8
I1
I7
I10
I0
I9
I4
I2
tp198
a(I6
I3
I5
I10
I2
I0
I1
I7
I9
I4
I8
tp199
a(I6
I3
I5
I10
I2
I0
I7
I1
I9
I4
I8
tp200
a(I6
I3
I5
I10
I2
I7
I0
I8
I9
I4
I1
tp201
a(I6
I3
I5
I10
I2
I7
I1
I8
I9
I4
I0
tp202
a(I6
I3
I5
I10
I2
I7
I8
I1
I9
I4
I0
tp203
a(I6
I7
I5
I1
I0
I2
I10
I3
I9
I4
I8
tp204
a(I6
I7
I5
I1
I0
I3
I2
I10
I9
I4
I8
tp205
a(I6
I7
I5
I1
I0
I10
I2
I3
I9
I4
I8
tp206
a(I6
I7
I5
I1
I3
I0
I2
I10
I9
I4
I8
tp207
a(I6
I7
I5
I1
I3
I2
I0
I10
I9
I4
I8
tp208
a(I6
I7
I5
I1
I10
I2
I8
I0
I9
I4
I3
tp209
a(I6
I7
I5
I1
I10
I3
I0
I9
I2
I4
I8
tp210
a(I6
I7
I5
I1
I10
I3
I2
I9
I0
I4
I8
tp211
a(I6
I7
I5
I1
I10
I3
I8
I0
I9
I4
I2
tp212
a(I6
I7
I5
I1
I10
I8
I2
I0
I9
I4
I3
tp213
a(I6
I7
I5
I1
I10
I9
I0
I3
I2
I4
I8
tp214
a(I6
I7
I5
I1
I10
I9
I2
I3
I0
I4
I8
tp215
a(I6
I7
I5
I2
I10
I3
I1
I0
I9
I4
I8
tp216
a(I6
I8
I5
I1
I10
I7
I0
I3
I2
I4
I9
tp217
a(I6
I8
I5
I1
I10
I7
I2
I3
I0
I4
I9
tp218
a(I7
I1
I5
I2
I10
I4
I6
I0
I9
I3
I8
tp219
a(I7
I1
I5
I4
I10
I2
I6
I0
I9
I3
I8
tp220
a(I7
I2
I5
I1
I0
I4
I6
I10
I9
I3
I8
tp221
a(I7
I2
I5
I1
I0
I10
I6
I4
I9
I3
I8
tp222
a(I7
I2
I5
I1
I4
I0
I6
I10
I9
I3
I8
tp223
a(I7
I2
I5
I1
I10
I0
I6
I9
I4
I3
I8
tp224
a(I7
I2
I5
I1
I10
I3
I4
I0
I9
I6
I8
tp225
a(I7
I2
I5
I1
I10
I3
I9
I6
I0
I4
I8
tp226
a(I7
I2
I5
I1
I10
I4
I6
I9
I0
I3
I8
tp227
a(I7
I2
I5
I1
I10
I8
I6
I0
I9
I3
I4
tp228
a(I7
I2
I5
I1
I10
I9
I6
I4
I0
I3
I8
tp229
a(I7
I3
I5
I1
I0
I10
I9
I6
I2
I4
I8
tp230
a(I7
I3
I5
I1
I2
I0
I10
I4
I9
I6
I8
tp231
a(I7
I3
I5
I1
I2
I4
I0
I10
I9
I6
I8
tp232
a(I7
I3
I5
I1
I2
I6
I0
I4
I9
I10
I8
tp233
a(I7
I3
I5
I1
I2
I6
I10
I4
I9
I0
I8
tp234
a(I7
I3
I5
I1
I2
I10
I0
I4
I9
I6
I8
tp235
a(I7
I3
I5
I1
I6
I2
I4
I0
I9
I10
I8
tp236
a(I7
I3
I5
I1
I6
I10
I4
I0
I9
I2
I8
tp237
a(I7
I3
I5
I1
I10
I6
I4
I0
I2
I9
I8
tp238
a(I7
I3
I5
I1
I10
I9
I4
I0
I2
I6
I8
tp239
a(I7
I6
I5
I1
I10
I3
I4
I0
I9
I2
I8
tp240
a(I7
I8
I5
I1
I10
I2
I6
I0
I9
I3
I4
tp241
a(I7
I8
I5
I1
I10
I4
I6
I0
I9
I3
I2
tp242
a(I7
I9
I5
I1
I10
I0
I6
I4
I2
I3
I8
tp243
a(I7
I9
I5
I1
I10
I2
I6
I4
I0
I3
I8
tp244
a(I8
I1
I5
I2
I10
I7
I6
I0
I9
I3
I4
tp245
a(I8
I1
I5
I4
I10
I7
I6
I0
I9
I3
I2
tp246
a(I8
I2
I5
I1
I0
I7
I6
I10
I9
I3
I4
tp247
a(I8
I2
I5
I1
I4
I7
I6
I10
I9
I3
I0
tp248
a(I8
I2
I5
I1
I10
I4
I6
I0
I9
I3
I7
tp249
a(I8
I2
I5
I1
I10
I7
I4
I0
I9
I6
I3
tp250
a(I8
I2
I5
I1
I10
I7
I6
I9
I0
I3
I4
tp251
a(I8
I2
I5
I1
I10
I7
I6
I9
I4
I3
I0
tp252
a(I8
I2
I5
I1
I10
I7
I9
I6
I0
I4
I3
tp253
a(I8
I2
I5
I4
I10
I7
I6
I0
I9
I3
I1
tp254
a(I8
I3
I5
I1
I2
I7
I0
I4
I9
I10
I6
tp255
a(I8
I3
I5
I1
I2
I7
I0
I10
I9
I6
I4
tp256
a(I8
I3
I5
I1
I2
I7
I10
I4
I9
I0
I6
tp257
a(I8
I3
I5
I1
I2
I7
I10
I4
I9
I6
I0
tp258
a(I8
I3
I5
I1
I6
I7
I4
I0
I9
I10
I2
tp259
a(I8
I3
I5
I1
I10
I7
I2
I0
I4
I6
I9
tp260
a(I8
I3
I5
I1
I10
I7
I4
I0
I2
I9
I6
tp261
a(I8
I4
I5
I1
I10
I7
I6
I3
I0
I2
I9
tp262
a(I8
I4
I5
I1
I10
I7
I6
I3
I2
I0
I9
tp263
a(I8
I6
I5
I1
I10
I7
I4
I0
I9
I2
I3
tp264
a(I8
I9
I5
I1
I10
I7
I6
I4
I0
I3
I2
tp265
a(I8
I9
I5
I1
I10
I7
I6
I4
I2
I3
I0
tp266
a(I10
I1
I5
I2
I0
I7
I6
I4
I9
I3
I8
tp267
a(I10
I2
I5
I0
I1
I7
I6
I4
I9
I3
I8
tp268
a(I10
I2
I5
I0
I4
I7
I6
I1
I9
I3
I8
tp269
a(I10
I2
I5
I1
I0
I4
I6
I7
I9
I3
I8
tp270
a(I10
I2
I5
I1
I0
I7
I4
I3
I9
I6
I8
tp271
a(I10
I2
I5
I1
I0
I7
I6
I8
I9
I3
I4
tp272
a(I10
I2
I5
I1
I4
I0
I6
I7
I9
I3
I8
tp273
a(I10
I2
I5
I1
I4
I7
I6
I8
I9
I3
I0
tp274
a(I10
I2
I5
I1
I6
I7
I4
I3
I9
I0
I8
tp275
a(I10
I2
I5
I1
I7
I0
I6
I4
I9
I3
I8
tp276
a(I10
I2
I5
I1
I8
I7
I6
I4
I9
I3
I0
tp277
a(I10
I2
I5
I4
I0
I7
I6
I1
I9
I3
I8
tp278
a(I10
I3
I5
I0
I1
I7
I9
I6
I2
I4
I8
tp279
a(I10
I3
I5
I0
I2
I7
I1
I4
I9
I6
I8
tp280
a(I10
I3
I5
I1
I0
I2
I9
I6
I7
I4
I8
tp281
a(I10
I3
I5
I1
I0
I7
I2
I6
I4
I9
I8
tp282
a(I10
I3
I5
I1
I0
I7
I4
I9
I2
I6
I8
tp283
a(I10
I3
I5
I1
I0
I7
I9
I6
I8
I4
I2
tp284
a(I10
I3
I5
I1
I2
I0
I7
I4
I9
I6
I8
tp285
a(I10
I3
I5
I1
I2
I4
I0
I7
I9
I6
I8
tp286
a(I10
I3
I5
I1
I2
I6
I7
I4
I9
I0
I8
tp287
a(I10
I3
I5
I1
I2
I7
I0
I4
I9
I8
I6
tp288
a(I10
I3
I5
I1
I2
I7
I0
I8
I9
I6
I4
tp289
a(I10
I3
I5
I1
I2
I7
I8
I4
I9
I0
I6
tp290
a(I10
I3
I5
I1
I2
I7
I8
I4
I9
I6
I0
tp291
a(I10
I3
I5
I1
I4
I7
I0
I6
I2
I9
I8
tp292
a(I10
I3
I5
I1
I4
I7
I2
I6
I0
I9
I8
tp293
a(I10
I3
I5
I1
I6
I7
I4
I0
I9
I8
I2
tp294
a(I10
I3
I5
I1
I6
I7
I4
I9
I0
I2
I8
tp295
a(I10
I3
I5
I1
I6
I7
I4
I9
I2
I0
I8
tp296
a(I10
I3
I5
I1
I7
I0
I9
I6
I2
I4
I8
tp297
a(I10
I3
I5
I1
I7
I2
I4
I0
I9
I6
I8
tp298
a(I10
I3
I5
I1
I7
I2
I9
I6
I0
I4
I8
tp299
a(I10
I3
I5
I1
I7
I6
I4
I0
I9
I2
I8
tp300
a(I10
I3
I5
I1
I8
I7
I4
I0
I9
I2
I6
tp301
a(I10
I3
I5
I1
I8
I7
I4
I0
I9
I6
I2
tp302
a(I10
I3
I5
I1
I8
I7
I9
I6
I0
I4
I2
tp303
a(I10
I3
I5
I1
I8
I7
I9
I6
I2
I4
I0
tp304
a(I10
I3
I5
I1
I9
I7
I0
I6
I4
I2
I8
tp305
a(I10
I3
I5
I1
I9
I7
I2
I6
I4
I0
I8
tp306
a(I10
I3
I5
I2
I0
I7
I9
I6
I1
I4
I8
tp307
a(I10
I3
I5
I2
I1
I7
I4
I0
I9
I6
I8
tp308
a(I10
I3
I5
I2
I1
I7
I9
I6
I0
I4
I8
tp309
a(I10
I3
I5
I4
I2
I7
I0
I1
I9
I6
I8
tp310
a(I10
I3
I5
I6
I1
I7
I4
I0
I9
I2
I8
tp311
a(I10
I3
I5
I6
I2
I7
I1
I4
I9
I0
I8
tp312
a(I10
I6
I5
I1
I0
I7
I4
I3
I9
I2
I8
tp313
a(I10
I8
I5
I1
I0
I7
I6
I4
I9
I3
I2
tp314
asS'resume'
p315
I4
s.